In archive libkdump.a:

libkdump.o:     file format elf64-x86-64


Disassembly of section .text:

0000000000000000 <dummy_check_addr_and_len>:
       0:	55                   	push   %rbp
       1:	48 89 e5             	mov    %rsp,%rbp
       4:	48 8b 05 00 00 00 00 	mov    0x0(%rip),%rax        # b <dummy_check_addr_and_len+0xb>
       b:	48 89 c2             	mov    %rax,%rdx
       e:	48 8b 05 00 00 00 00 	mov    0x0(%rip),%rax        # 15 <dummy_check_addr_and_len+0x15>
      15:	48 29 c2             	sub    %rax,%rdx
      18:	48 89 d0             	mov    %rdx,%rax
      1b:	48 8b 15 00 00 00 00 	mov    0x0(%rip),%rdx        # 22 <dummy_check_addr_and_len+0x22>
      22:	48 89 d1             	mov    %rdx,%rcx
      25:	48 89 c2             	mov    %rax,%rdx
      28:	48 89 ce             	mov    %rcx,%rsi
      2b:	48 8d 3d 00 00 00 00 	lea    0x0(%rip),%rdi        # 32 <dummy_check_addr_and_len+0x32>
      32:	b8 00 00 00 00       	mov    $0x0,%eax
      37:	e8 00 00 00 00       	callq  3c <dummy_check_addr_and_len+0x3c>
      3c:	90                   	nop
      3d:	5d                   	pop    %rbp
      3e:	c3                   	retq   

000000000000003f <dummy_meltdown_standard>:
      3f:	55                   	push   %rbp
      40:	48 89 e5             	mov    %rsp,%rbp
      43:	53                   	push   %rbx
      44:	48 8b 0d 00 00 00 00 	mov    0x0(%rip),%rcx        # 4b <dummy_meltdown_standard+0xc>
      4b:	4c 8b 15 00 00 00 00 	mov    0x0(%rip),%r10        # 52 <dummy_meltdown_standard+0x13>
      52:	4c 89 d3             	mov    %r10,%rbx
      55:	48 29 d9             	sub    %rbx,%rcx
      58:	48 83 eb 40          	sub    $0x40,%rbx
      5c:	48 8b 3b             	mov    (%rbx),%rdi
      5f:	48 8b 0c 0f          	mov    (%rdi,%rcx,1),%rcx
      63:	48 8b 0c 0f          	mov    (%rdi,%rcx,1),%rcx
      67:	48 83 c1 01          	add    $0x1,%rcx
      6b:	48 83 e9 01          	sub    $0x1,%rcx
      6f:	48 83 c1 01          	add    $0x1,%rcx
      73:	48 83 e9 01          	sub    $0x1,%rcx
      77:	48 83 c1 01          	add    $0x1,%rcx
      7b:	48 83 e9 01          	sub    $0x1,%rcx
      7f:	48 83 c1 01          	add    $0x1,%rcx
      83:	48 83 e9 01          	sub    $0x1,%rcx
      87:	48 83 c1 01          	add    $0x1,%rcx
      8b:	48 83 e9 01          	sub    $0x1,%rcx
      8f:	48 83 c1 01          	add    $0x1,%rcx
      93:	48 83 e9 01          	sub    $0x1,%rcx
      97:	48 83 c1 01          	add    $0x1,%rcx
      9b:	48 83 e9 01          	sub    $0x1,%rcx
      9f:	48 83 c1 01          	add    $0x1,%rcx
      a3:	48 83 e9 01          	sub    $0x1,%rcx
      a7:	48 83 c1 01          	add    $0x1,%rcx
      ab:	48 83 e9 01          	sub    $0x1,%rcx
      af:	48 83 c1 01          	add    $0x1,%rcx
      b3:	48 83 e9 01          	sub    $0x1,%rcx
      b7:	48 83 c1 01          	add    $0x1,%rcx
      bb:	48 83 e9 01          	sub    $0x1,%rcx
      bf:	48 83 c1 01          	add    $0x1,%rcx
      c3:	48 83 e9 01          	sub    $0x1,%rcx
      c7:	48 83 c1 01          	add    $0x1,%rcx
      cb:	48 83 e9 01          	sub    $0x1,%rcx
      cf:	48 83 c1 01          	add    $0x1,%rcx
      d3:	48 83 e9 01          	sub    $0x1,%rcx
      d7:	48 83 c1 01          	add    $0x1,%rcx
      db:	48 83 e9 01          	sub    $0x1,%rcx
      df:	48 83 c1 01          	add    $0x1,%rcx
      e3:	48 83 e9 01          	sub    $0x1,%rcx
      e7:	48 83 c1 01          	add    $0x1,%rcx
      eb:	48 83 e9 01          	sub    $0x1,%rcx
      ef:	48 83 c1 01          	add    $0x1,%rcx
      f3:	48 83 e9 01          	sub    $0x1,%rcx
      f7:	48 83 c1 01          	add    $0x1,%rcx
      fb:	48 83 e9 01          	sub    $0x1,%rcx
      ff:	48 83 c1 01          	add    $0x1,%rcx
     103:	48 83 e9 01          	sub    $0x1,%rcx
     107:	48 83 c1 01          	add    $0x1,%rcx
     10b:	48 83 e9 01          	sub    $0x1,%rcx
     10f:	48 83 c1 01          	add    $0x1,%rcx
     113:	48 83 e9 01          	sub    $0x1,%rcx
     117:	48 83 c1 01          	add    $0x1,%rcx
     11b:	48 83 e9 01          	sub    $0x1,%rcx
     11f:	48 83 c1 01          	add    $0x1,%rcx
     123:	48 83 e9 01          	sub    $0x1,%rcx
     127:	48 83 c1 01          	add    $0x1,%rcx
     12b:	48 83 e9 01          	sub    $0x1,%rcx
     12f:	48 83 c1 01          	add    $0x1,%rcx
     133:	48 83 e9 01          	sub    $0x1,%rcx
     137:	48 83 c1 01          	add    $0x1,%rcx
     13b:	48 83 e9 01          	sub    $0x1,%rcx
     13f:	48 83 c1 01          	add    $0x1,%rcx
     143:	48 83 e9 01          	sub    $0x1,%rcx
     147:	48 83 c1 01          	add    $0x1,%rcx
     14b:	48 83 e9 01          	sub    $0x1,%rcx
     14f:	48 83 c1 01          	add    $0x1,%rcx
     153:	48 83 e9 01          	sub    $0x1,%rcx
     157:	48 83 c1 01          	add    $0x1,%rcx
     15b:	48 83 e9 01          	sub    $0x1,%rcx
     15f:	48 83 c1 01          	add    $0x1,%rcx
     163:	48 83 e9 01          	sub    $0x1,%rcx
     167:	48 83 c1 01          	add    $0x1,%rcx
     16b:	48 83 e9 01          	sub    $0x1,%rcx
     16f:	48 83 c1 01          	add    $0x1,%rcx
     173:	48 83 e9 01          	sub    $0x1,%rcx
     177:	48 83 c1 01          	add    $0x1,%rcx
     17b:	48 83 e9 01          	sub    $0x1,%rcx
     17f:	48 83 c1 01          	add    $0x1,%rcx
     183:	48 83 e9 01          	sub    $0x1,%rcx
     187:	48 83 c1 01          	add    $0x1,%rcx
     18b:	48 83 e9 01          	sub    $0x1,%rcx
     18f:	48 83 c1 01          	add    $0x1,%rcx
     193:	48 83 e9 01          	sub    $0x1,%rcx
     197:	48 83 c1 01          	add    $0x1,%rcx
     19b:	48 83 e9 01          	sub    $0x1,%rcx
     19f:	48 83 c1 01          	add    $0x1,%rcx
     1a3:	48 83 e9 01          	sub    $0x1,%rcx
     1a7:	48 83 c1 01          	add    $0x1,%rcx
     1ab:	48 83 e9 01          	sub    $0x1,%rcx
     1af:	48 83 c1 01          	add    $0x1,%rcx
     1b3:	48 83 e9 01          	sub    $0x1,%rcx
     1b7:	48 83 c1 01          	add    $0x1,%rcx
     1bb:	48 83 e9 01          	sub    $0x1,%rcx
     1bf:	48 83 c1 01          	add    $0x1,%rcx
     1c3:	48 83 e9 01          	sub    $0x1,%rcx
     1c7:	48 83 c1 01          	add    $0x1,%rcx
     1cb:	48 83 e9 01          	sub    $0x1,%rcx
     1cf:	48 83 c1 01          	add    $0x1,%rcx
     1d3:	48 83 e9 01          	sub    $0x1,%rcx
     1d7:	48 83 c1 01          	add    $0x1,%rcx
     1db:	48 83 e9 01          	sub    $0x1,%rcx
     1df:	48 83 c1 01          	add    $0x1,%rcx
     1e3:	48 83 e9 01          	sub    $0x1,%rcx
     1e7:	48 83 c1 01          	add    $0x1,%rcx
     1eb:	48 83 e9 01          	sub    $0x1,%rcx
     1ef:	48 83 c1 01          	add    $0x1,%rcx
     1f3:	48 83 e9 01          	sub    $0x1,%rcx
     1f7:	48 83 c1 01          	add    $0x1,%rcx
     1fb:	48 83 e9 01          	sub    $0x1,%rcx
     1ff:	48 83 c1 01          	add    $0x1,%rcx
     203:	48 83 e9 01          	sub    $0x1,%rcx
     207:	48 83 c1 01          	add    $0x1,%rcx
     20b:	48 83 e9 01          	sub    $0x1,%rcx
     20f:	48 83 c1 01          	add    $0x1,%rcx
     213:	48 83 e9 01          	sub    $0x1,%rcx
     217:	48 83 c1 01          	add    $0x1,%rcx
     21b:	48 83 e9 01          	sub    $0x1,%rcx
     21f:	48 83 c1 01          	add    $0x1,%rcx
     223:	48 83 e9 01          	sub    $0x1,%rcx
     227:	48 83 c1 01          	add    $0x1,%rcx
     22b:	48 83 e9 01          	sub    $0x1,%rcx
     22f:	48 83 c1 01          	add    $0x1,%rcx
     233:	48 83 e9 01          	sub    $0x1,%rcx
     237:	48 83 c1 01          	add    $0x1,%rcx
     23b:	48 83 e9 01          	sub    $0x1,%rcx
     23f:	48 83 c1 01          	add    $0x1,%rcx
     243:	48 83 e9 01          	sub    $0x1,%rcx
     247:	48 83 c1 01          	add    $0x1,%rcx
     24b:	48 83 e9 01          	sub    $0x1,%rcx
     24f:	48 83 c1 01          	add    $0x1,%rcx
     253:	48 83 e9 01          	sub    $0x1,%rcx
     257:	48 83 c1 01          	add    $0x1,%rcx
     25b:	48 83 e9 01          	sub    $0x1,%rcx
     25f:	48 83 c1 01          	add    $0x1,%rcx
     263:	48 83 e9 01          	sub    $0x1,%rcx
     267:	48 83 c1 01          	add    $0x1,%rcx
     26b:	48 83 e9 01          	sub    $0x1,%rcx
     26f:	48 83 c1 01          	add    $0x1,%rcx
     273:	48 83 e9 01          	sub    $0x1,%rcx
     277:	48 83 c1 01          	add    $0x1,%rcx
     27b:	48 83 e9 01          	sub    $0x1,%rcx
     27f:	48 83 c1 01          	add    $0x1,%rcx
     283:	48 83 e9 01          	sub    $0x1,%rcx
     287:	48 83 c1 01          	add    $0x1,%rcx
     28b:	48 83 e9 01          	sub    $0x1,%rcx
     28f:	48 83 c1 01          	add    $0x1,%rcx
     293:	48 83 e9 01          	sub    $0x1,%rcx
     297:	48 83 c1 01          	add    $0x1,%rcx
     29b:	48 83 e9 01          	sub    $0x1,%rcx
     29f:	48 83 c1 01          	add    $0x1,%rcx
     2a3:	48 83 e9 01          	sub    $0x1,%rcx
     2a7:	48 83 c1 01          	add    $0x1,%rcx
     2ab:	48 83 e9 01          	sub    $0x1,%rcx
     2af:	48 83 c1 01          	add    $0x1,%rcx
     2b3:	48 83 e9 01          	sub    $0x1,%rcx
     2b7:	48 83 c1 01          	add    $0x1,%rcx
     2bb:	48 83 e9 01          	sub    $0x1,%rcx
     2bf:	48 83 c1 01          	add    $0x1,%rcx
     2c3:	48 83 e9 01          	sub    $0x1,%rcx
     2c7:	48 83 c1 01          	add    $0x1,%rcx
     2cb:	48 83 e9 01          	sub    $0x1,%rcx
     2cf:	48 83 c1 01          	add    $0x1,%rcx
     2d3:	48 83 e9 01          	sub    $0x1,%rcx
     2d7:	48 83 c1 01          	add    $0x1,%rcx
     2db:	48 83 e9 01          	sub    $0x1,%rcx
     2df:	48 83 c1 01          	add    $0x1,%rcx
     2e3:	48 83 e9 01          	sub    $0x1,%rcx
     2e7:	90                   	nop
     2e8:	5b                   	pop    %rbx
     2e9:	5d                   	pop    %rbp
     2ea:	c3                   	retq   

00000000000002eb <dummy_meltdown_write>:
     2eb:	55                   	push   %rbp
     2ec:	48 89 e5             	mov    %rsp,%rbp
     2ef:	53                   	push   %rbx
     2f0:	48 8b 0d 00 00 00 00 	mov    0x0(%rip),%rcx        # 2f7 <dummy_meltdown_write+0xc>
     2f7:	4c 8b 15 00 00 00 00 	mov    0x0(%rip),%r10        # 2fe <dummy_meltdown_write+0x13>
     2fe:	4c 89 d3             	mov    %r10,%rbx
     301:	48 89 df             	mov    %rbx,%rdi
     304:	48 83 ef 40          	sub    $0x40,%rdi
     308:	48 8b 3f             	mov    (%rdi),%rdi
     30b:	48 c7 01 00 20 04 00 	movq   $0x42000,(%rcx)
     312:	48 8b 09             	mov    (%rcx),%rcx
     315:	48 8b 0c 0b          	mov    (%rbx,%rcx,1),%rcx
     319:	90                   	nop
     31a:	5b                   	pop    %rbx
     31b:	5d                   	pop    %rbp
     31c:	c3                   	retq   

000000000000031d <dummy_meltdown_cr>:
     31d:	55                   	push   %rbp
     31e:	48 89 e5             	mov    %rsp,%rbp
     321:	53                   	push   %rbx
     322:	48 8b 0d 00 00 00 00 	mov    0x0(%rip),%rcx        # 329 <dummy_meltdown_cr+0xc>
     329:	4c 8b 15 00 00 00 00 	mov    0x0(%rip),%r10        # 330 <dummy_meltdown_cr+0x13>
     330:	4c 89 d3             	mov    %r10,%rbx
     333:	48 89 df             	mov    %rbx,%rdi
     336:	48 83 ef 40          	sub    $0x40,%rdi
     33a:	48 8b 3f             	mov    (%rdi),%rdi
     33d:	41 0f 20 e0          	mov    %cr4,%r8
     341:	49 81 e0 ff 00 00 00 	and    $0xff,%r8
     348:	49 c1 e0 0c          	shl    $0xc,%r8
     34c:	4e 8b 04 03          	mov    (%rbx,%r8,1),%r8
     350:	90                   	nop
     351:	5b                   	pop    %rbx
     352:	5d                   	pop    %rbp
     353:	c3                   	retq   

0000000000000354 <dummy_meltdown_msr>:
     354:	55                   	push   %rbp
     355:	48 89 e5             	mov    %rsp,%rbp
     358:	53                   	push   %rbx
     359:	48 8b 0d 00 00 00 00 	mov    0x0(%rip),%rcx        # 360 <dummy_meltdown_msr+0xc>
     360:	4c 8b 15 00 00 00 00 	mov    0x0(%rip),%r10        # 367 <dummy_meltdown_msr+0x13>
     367:	4c 89 d3             	mov    %r10,%rbx
     36a:	48 89 df             	mov    %rbx,%rdi
     36d:	48 83 eb 40          	sub    $0x40,%rbx
     371:	48 c7 c1 a2 01 00 00 	mov    $0x1a2,%rcx
     378:	48 8b 1b             	mov    (%rbx),%rbx
     37b:	0f 32                	rdmsr  
     37d:	48 25 00 00 ff 00    	and    $0xff0000,%rax
     383:	48 c1 e8 04          	shr    $0x4,%rax
     387:	48 8b 04 07          	mov    (%rdi,%rax,1),%rax
     38b:	90                   	nop
     38c:	5b                   	pop    %rbx
     38d:	5d                   	pop    %rbp
     38e:	c3                   	retq   

000000000000038f <dummy_meltdown_xmm>:
     38f:	55                   	push   %rbp
     390:	48 89 e5             	mov    %rsp,%rbp
     393:	53                   	push   %rbx
     394:	48 8b 15 00 00 00 00 	mov    0x0(%rip),%rdx        # 39b <dummy_meltdown_xmm+0xc>
     39b:	4c 8b 0d 00 00 00 00 	mov    0x0(%rip),%r9        # 3a2 <dummy_meltdown_xmm+0x13>
     3a2:	48 89 d1             	mov    %rdx,%rcx
     3a5:	4c 89 cb             	mov    %r9,%rbx
     3a8:	48 89 ce             	mov    %rcx,%rsi
     3ab:	48 89 df             	mov    %rbx,%rdi
     3ae:	48 29 fe             	sub    %rdi,%rsi
     3b1:	48 83 ef 40          	sub    $0x40,%rdi
     3b5:	0f a2                	cpuid  
     3b7:	48 8b 3f             	mov    (%rdi),%rdi
     3ba:	66 0f 6f 04 3e       	movdqa (%rsi,%rdi,1),%xmm0
     3bf:	66 48 0f 7e c0       	movq   %xmm0,%rax
     3c4:	48 8b 3c 07          	mov    (%rdi,%rax,1),%rdi
     3c8:	90                   	nop
     3c9:	5b                   	pop    %rbx
     3ca:	5d                   	pop    %rbp
     3cb:	c3                   	retq   

00000000000003cc <dummy_meltdown_xmm_load>:
     3cc:	55                   	push   %rbp
     3cd:	48 89 e5             	mov    %rsp,%rbp
     3d0:	53                   	push   %rbx
     3d1:	48 8b 15 00 00 00 00 	mov    0x0(%rip),%rdx        # 3d8 <dummy_meltdown_xmm_load+0xc>
     3d8:	4c 8b 0d 00 00 00 00 	mov    0x0(%rip),%r9        # 3df <dummy_meltdown_xmm_load+0x13>
     3df:	48 89 d1             	mov    %rdx,%rcx
     3e2:	4c 89 cb             	mov    %r9,%rbx
     3e5:	48 89 de             	mov    %rbx,%rsi
     3e8:	48 89 df             	mov    %rbx,%rdi
     3eb:	48 83 ef 40          	sub    $0x40,%rdi
     3ef:	0f a2                	cpuid  
     3f1:	48 8b 3f             	mov    (%rdi),%rdi
     3f4:	66 48 0f 7e c0       	movq   %xmm0,%rax
     3f9:	48 8b 34 06          	mov    (%rsi,%rax,1),%rsi
     3fd:	90                   	nop
     3fe:	5b                   	pop    %rbx
     3ff:	5d                   	pop    %rbp
     400:	c3                   	retq   

0000000000000401 <dummy_meltdown_xmm_wait>:
     401:	55                   	push   %rbp
     402:	48 89 e5             	mov    %rsp,%rbp
     405:	53                   	push   %rbx
     406:	48 8b 15 00 00 00 00 	mov    0x0(%rip),%rdx        # 40d <dummy_meltdown_xmm_wait+0xc>
     40d:	4c 8b 0d 00 00 00 00 	mov    0x0(%rip),%r9        # 414 <dummy_meltdown_xmm_wait+0x13>
     414:	48 89 d1             	mov    %rdx,%rcx
     417:	4c 89 cb             	mov    %r9,%rbx
     41a:	48 89 de             	mov    %rbx,%rsi
     41d:	48 89 df             	mov    %rbx,%rdi
     420:	48 83 ef 40          	sub    $0x40,%rdi
     424:	0f a2                	cpuid  
     426:	48 8b 3f             	mov    (%rdi),%rdi
     429:	9b                   	fwait
     42a:	66 48 0f 7e c0       	movq   %xmm0,%rax
     42f:	48 8b 34 06          	mov    (%rsi,%rax,1),%rsi
     433:	90                   	nop
     434:	5b                   	pop    %rbx
     435:	5d                   	pop    %rbp
     436:	c3                   	retq   

0000000000000437 <dummy_meltdown_standard_with_tsx>:
     437:	55                   	push   %rbp
     438:	48 89 e5             	mov    %rsp,%rbp
     43b:	53                   	push   %rbx
     43c:	48 8b 15 00 00 00 00 	mov    0x0(%rip),%rdx        # 443 <dummy_meltdown_standard_with_tsx+0xc>
     443:	4c 8b 0d 00 00 00 00 	mov    0x0(%rip),%r9        # 44a <dummy_meltdown_standard_with_tsx+0x13>
     44a:	48 89 d1             	mov    %rdx,%rcx
     44d:	4c 89 cb             	mov    %r9,%rbx
     450:	c7 f8 15 00 00 00    	xbeginq 46b <end_execution>
     456:	48 29 d9             	sub    %rbx,%rcx
     459:	48 83 eb 40          	sub    $0x40,%rbx
     45d:	48 8b 3b             	mov    (%rbx),%rdi
     460:	48 8b 0c 0f          	mov    (%rdi,%rcx,1),%rcx
     464:	48 8b 0c 0f          	mov    (%rdi,%rcx,1),%rcx
     468:	0f 01 d5             	xend   

000000000000046b <end_execution>:
     46b:	90                   	nop
     46c:	90                   	nop
     46d:	5b                   	pop    %rbx
     46e:	5d                   	pop    %rbp
     46f:	c3                   	retq   

0000000000000470 <debug>:
     470:	55                   	push   %rbp
     471:	48 89 e5             	mov    %rsp,%rbp
     474:	48 81 ec e0 00 00 00 	sub    $0xe0,%rsp
     47b:	89 bd 2c ff ff ff    	mov    %edi,-0xd4(%rbp)
     481:	48 89 b5 20 ff ff ff 	mov    %rsi,-0xe0(%rbp)
     488:	48 89 95 60 ff ff ff 	mov    %rdx,-0xa0(%rbp)
     48f:	48 89 8d 68 ff ff ff 	mov    %rcx,-0x98(%rbp)
     496:	4c 89 85 70 ff ff ff 	mov    %r8,-0x90(%rbp)
     49d:	4c 89 8d 78 ff ff ff 	mov    %r9,-0x88(%rbp)
     4a4:	84 c0                	test   %al,%al
     4a6:	74 20                	je     4c8 <debug+0x58>
     4a8:	0f 29 45 80          	movaps %xmm0,-0x80(%rbp)
     4ac:	0f 29 4d 90          	movaps %xmm1,-0x70(%rbp)
     4b0:	0f 29 55 a0          	movaps %xmm2,-0x60(%rbp)
     4b4:	0f 29 5d b0          	movaps %xmm3,-0x50(%rbp)
     4b8:	0f 29 65 c0          	movaps %xmm4,-0x40(%rbp)
     4bc:	0f 29 6d d0          	movaps %xmm5,-0x30(%rbp)
     4c0:	0f 29 75 e0          	movaps %xmm6,-0x20(%rbp)
     4c4:	0f 29 7d f0          	movaps %xmm7,-0x10(%rbp)
     4c8:	64 48 8b 04 25 28 00 	mov    %fs:0x28,%rax
     4cf:	00 00 
     4d1:	48 89 85 48 ff ff ff 	mov    %rax,-0xb8(%rbp)
     4d8:	31 c0                	xor    %eax,%eax
     4da:	8b 05 00 00 00 00    	mov    0x0(%rip),%eax        # 4e0 <debug+0x70>
     4e0:	85 c0                	test   %eax,%eax
     4e2:	0f 84 a1 00 00 00    	je     589 <debug+0x119>
     4e8:	8b 85 2c ff ff ff    	mov    -0xd4(%rbp),%eax
     4ee:	83 f8 01             	cmp    $0x1,%eax
     4f1:	74 1f                	je     512 <debug+0xa2>
     4f3:	83 f8 01             	cmp    $0x1,%eax
     4f6:	72 07                	jb     4ff <debug+0x8f>
     4f8:	83 f8 02             	cmp    $0x2,%eax
     4fb:	74 28                	je     525 <debug+0xb5>
     4fd:	eb 38                	jmp    537 <debug+0xc7>
     4ff:	48 8d 3d 00 00 00 00 	lea    0x0(%rip),%rdi        # 506 <debug+0x96>
     506:	b8 00 00 00 00       	mov    $0x0,%eax
     50b:	e8 00 00 00 00       	callq  510 <debug+0xa0>
     510:	eb 25                	jmp    537 <debug+0xc7>
     512:	48 8d 3d 00 00 00 00 	lea    0x0(%rip),%rdi        # 519 <debug+0xa9>
     519:	b8 00 00 00 00       	mov    $0x0,%eax
     51e:	e8 00 00 00 00       	callq  523 <debug+0xb3>
     523:	eb 12                	jmp    537 <debug+0xc7>
     525:	48 8d 3d 00 00 00 00 	lea    0x0(%rip),%rdi        # 52c <debug+0xbc>
     52c:	b8 00 00 00 00       	mov    $0x0,%eax
     531:	e8 00 00 00 00       	callq  536 <debug+0xc6>
     536:	90                   	nop
     537:	c7 85 30 ff ff ff 10 	movl   $0x10,-0xd0(%rbp)
     53e:	00 00 00 
     541:	c7 85 34 ff ff ff 30 	movl   $0x30,-0xcc(%rbp)
     548:	00 00 00 
     54b:	48 8d 45 10          	lea    0x10(%rbp),%rax
     54f:	48 89 85 38 ff ff ff 	mov    %rax,-0xc8(%rbp)
     556:	48 8d 85 50 ff ff ff 	lea    -0xb0(%rbp),%rax
     55d:	48 89 85 40 ff ff ff 	mov    %rax,-0xc0(%rbp)
     564:	48 8b 05 00 00 00 00 	mov    0x0(%rip),%rax        # 56b <debug+0xfb>
     56b:	48 8b 00             	mov    (%rax),%rax
     56e:	48 8d 95 30 ff ff ff 	lea    -0xd0(%rbp),%rdx
     575:	48 8b 8d 20 ff ff ff 	mov    -0xe0(%rbp),%rcx
     57c:	48 89 ce             	mov    %rcx,%rsi
     57f:	48 89 c7             	mov    %rax,%rdi
     582:	e8 00 00 00 00       	callq  587 <debug+0x117>
     587:	eb 01                	jmp    58a <debug+0x11a>
     589:	90                   	nop
     58a:	48 8b 85 48 ff ff ff 	mov    -0xb8(%rbp),%rax
     591:	64 48 33 04 25 28 00 	xor    %fs:0x28,%rax
     598:	00 00 
     59a:	74 05                	je     5a1 <debug+0x131>
     59c:	e8 00 00 00 00       	callq  5a1 <debug+0x131>
     5a1:	c9                   	leaveq 
     5a2:	c3                   	retq   

00000000000005a3 <wrpkru>:
     5a3:	55                   	push   %rbp
     5a4:	48 89 e5             	mov    %rsp,%rbp
     5a7:	89 7d ec             	mov    %edi,-0x14(%rbp)
     5aa:	8b 45 ec             	mov    -0x14(%rbp),%eax
     5ad:	89 45 f4             	mov    %eax,-0xc(%rbp)
     5b0:	c7 45 f8 00 00 00 00 	movl   $0x0,-0x8(%rbp)
     5b7:	c7 45 fc 00 00 00 00 	movl   $0x0,-0x4(%rbp)
     5be:	8b 45 f4             	mov    -0xc(%rbp),%eax
     5c1:	8b 4d f8             	mov    -0x8(%rbp),%ecx
     5c4:	8b 55 fc             	mov    -0x4(%rbp),%edx
     5c7:	0f 01 ef             	wrpkru 
     5ca:	90                   	nop
     5cb:	5d                   	pop    %rbp
     5cc:	c3                   	retq   

00000000000005cd <pkey_set>:
     5cd:	55                   	push   %rbp
     5ce:	48 89 e5             	mov    %rsp,%rbp
     5d1:	48 83 ec 28          	sub    $0x28,%rsp
     5d5:	89 7d ec             	mov    %edi,-0x14(%rbp)
     5d8:	48 89 75 e0          	mov    %rsi,-0x20(%rbp)
     5dc:	48 89 55 d8          	mov    %rdx,-0x28(%rbp)
     5e0:	8b 45 ec             	mov    -0x14(%rbp),%eax
     5e3:	01 c0                	add    %eax,%eax
     5e5:	48 8b 55 e0          	mov    -0x20(%rbp),%rdx
     5e9:	89 c1                	mov    %eax,%ecx
     5eb:	48 d3 e2             	shl    %cl,%rdx
     5ee:	48 89 d0             	mov    %rdx,%rax
     5f1:	89 45 fc             	mov    %eax,-0x4(%rbp)
     5f4:	8b 45 fc             	mov    -0x4(%rbp),%eax
     5f7:	89 c7                	mov    %eax,%edi
     5f9:	e8 a5 ff ff ff       	callq  5a3 <wrpkru>
     5fe:	b8 00 00 00 00       	mov    $0x0,%eax
     603:	c9                   	leaveq 
     604:	c3                   	retq   

0000000000000605 <pkey_mprotect>:
     605:	55                   	push   %rbp
     606:	48 89 e5             	mov    %rsp,%rbp
     609:	48 83 ec 20          	sub    $0x20,%rsp
     60d:	48 89 7d e8          	mov    %rdi,-0x18(%rbp)
     611:	89 75 e4             	mov    %esi,-0x1c(%rbp)
     614:	48 8b 45 e8          	mov    -0x18(%rbp),%rax
     618:	49 89 c0             	mov    %rax,%r8
     61b:	b9 04 00 00 00       	mov    $0x4,%ecx
     620:	48 8d 15 00 00 00 00 	lea    0x0(%rip),%rdx        # 627 <pkey_mprotect+0x22>
     627:	be 28 00 00 00       	mov    $0x28,%esi
     62c:	48 8d 3d 00 00 00 00 	lea    0x0(%rip),%rdi        # 633 <pkey_mprotect+0x2e>
     633:	b8 00 00 00 00       	mov    $0x0,%eax
     638:	e8 00 00 00 00       	callq  63d <pkey_mprotect+0x38>
     63d:	48 8d 3d 00 00 00 00 	lea    0x0(%rip),%rdi        # 644 <pkey_mprotect+0x3f>
     644:	e8 00 00 00 00       	callq  649 <pkey_mprotect+0x44>
     649:	48 89 c2             	mov    %rax,%rdx
     64c:	8b 05 00 00 00 00    	mov    0x0(%rip),%eax        # 652 <pkey_mprotect+0x4d>
     652:	48 8d 35 00 00 00 00 	lea    0x0(%rip),%rsi        # 659 <pkey_mprotect+0x54>
     659:	89 c7                	mov    %eax,%edi
     65b:	e8 00 00 00 00       	callq  660 <pkey_mprotect+0x5b>
     660:	89 45 fc             	mov    %eax,-0x4(%rbp)
     663:	83 7d fc 00          	cmpl   $0x0,-0x4(%rbp)
     667:	79 05                	jns    66e <pkey_mprotect+0x69>
     669:	8b 45 fc             	mov    -0x4(%rbp),%eax
     66c:	eb 4b                	jmp    6b9 <pkey_mprotect+0xb4>
     66e:	8b 45 e4             	mov    -0x1c(%rbp),%eax
     671:	41 89 c0             	mov    %eax,%r8d
     674:	b9 06 00 00 00       	mov    $0x6,%ecx
     679:	48 8d 15 00 00 00 00 	lea    0x0(%rip),%rdx        # 680 <pkey_mprotect+0x7b>
     680:	be 28 00 00 00       	mov    $0x28,%esi
     685:	48 8d 3d 00 00 00 00 	lea    0x0(%rip),%rdi        # 68c <pkey_mprotect+0x87>
     68c:	b8 00 00 00 00       	mov    $0x0,%eax
     691:	e8 00 00 00 00       	callq  696 <pkey_mprotect+0x91>
     696:	48 8d 3d 00 00 00 00 	lea    0x0(%rip),%rdi        # 69d <pkey_mprotect+0x98>
     69d:	e8 00 00 00 00       	callq  6a2 <pkey_mprotect+0x9d>
     6a2:	48 89 c2             	mov    %rax,%rdx
     6a5:	8b 05 00 00 00 00    	mov    0x0(%rip),%eax        # 6ab <pkey_mprotect+0xa6>
     6ab:	48 8d 35 00 00 00 00 	lea    0x0(%rip),%rsi        # 6b2 <pkey_mprotect+0xad>
     6b2:	89 c7                	mov    %eax,%edi
     6b4:	e8 00 00 00 00       	callq  6b9 <pkey_mprotect+0xb4>
     6b9:	c9                   	leaveq 
     6ba:	c3                   	retq   

00000000000006bb <pkey_restore>:
     6bb:	55                   	push   %rbp
     6bc:	48 89 e5             	mov    %rsp,%rbp
     6bf:	48 83 ec 20          	sub    $0x20,%rsp
     6c3:	48 89 7d e8          	mov    %rdi,-0x18(%rbp)
     6c7:	48 8b 45 e8          	mov    -0x18(%rbp),%rax
     6cb:	49 89 c0             	mov    %rax,%r8
     6ce:	b9 04 00 00 00       	mov    $0x4,%ecx
     6d3:	48 8d 15 00 00 00 00 	lea    0x0(%rip),%rdx        # 6da <pkey_restore+0x1f>
     6da:	be 28 00 00 00       	mov    $0x28,%esi
     6df:	48 8d 3d 00 00 00 00 	lea    0x0(%rip),%rdi        # 6e6 <pkey_restore+0x2b>
     6e6:	b8 00 00 00 00       	mov    $0x0,%eax
     6eb:	e8 00 00 00 00       	callq  6f0 <pkey_restore+0x35>
     6f0:	48 8d 3d 00 00 00 00 	lea    0x0(%rip),%rdi        # 6f7 <pkey_restore+0x3c>
     6f7:	e8 00 00 00 00       	callq  6fc <pkey_restore+0x41>
     6fc:	48 89 c2             	mov    %rax,%rdx
     6ff:	8b 05 00 00 00 00    	mov    0x0(%rip),%eax        # 705 <pkey_restore+0x4a>
     705:	48 8d 35 00 00 00 00 	lea    0x0(%rip),%rsi        # 70c <pkey_restore+0x51>
     70c:	89 c7                	mov    %eax,%edi
     70e:	e8 00 00 00 00       	callq  713 <pkey_restore+0x58>
     713:	83 7d fc 00          	cmpl   $0x0,-0x4(%rbp)
     717:	79 05                	jns    71e <pkey_restore+0x63>
     719:	8b 45 fc             	mov    -0x4(%rbp),%eax
     71c:	eb 4b                	jmp    769 <pkey_restore+0xae>
     71e:	41 b8 00 00 00 00    	mov    $0x0,%r8d
     724:	b9 06 00 00 00       	mov    $0x6,%ecx
     729:	48 8d 15 00 00 00 00 	lea    0x0(%rip),%rdx        # 730 <pkey_restore+0x75>
     730:	be 28 00 00 00       	mov    $0x28,%esi
     735:	48 8d 3d 00 00 00 00 	lea    0x0(%rip),%rdi        # 73c <pkey_restore+0x81>
     73c:	b8 00 00 00 00       	mov    $0x0,%eax
     741:	e8 00 00 00 00       	callq  746 <pkey_restore+0x8b>
     746:	48 8d 3d 00 00 00 00 	lea    0x0(%rip),%rdi        # 74d <pkey_restore+0x92>
     74d:	e8 00 00 00 00       	callq  752 <pkey_restore+0x97>
     752:	48 89 c2             	mov    %rax,%rdx
     755:	8b 05 00 00 00 00    	mov    0x0(%rip),%eax        # 75b <pkey_restore+0xa0>
     75b:	48 8d 35 00 00 00 00 	lea    0x0(%rip),%rsi        # 762 <pkey_restore+0xa7>
     762:	89 c7                	mov    %eax,%edi
     764:	e8 00 00 00 00       	callq  769 <pkey_restore+0xae>
     769:	c9                   	leaveq 
     76a:	c3                   	retq   

000000000000076b <rdtsc>:
     76b:	55                   	push   %rbp
     76c:	48 89 e5             	mov    %rsp,%rbp
     76f:	48 c7 45 f0 00 00 00 	movq   $0x0,-0x10(%rbp)
     776:	00 
     777:	48 c7 45 f8 00 00 00 	movq   $0x0,-0x8(%rbp)
     77e:	00 
     77f:	0f ae f0             	mfence 
     782:	0f 31                	rdtsc  
     784:	48 89 45 f0          	mov    %rax,-0x10(%rbp)
     788:	48 89 55 f8          	mov    %rdx,-0x8(%rbp)
     78c:	48 8b 45 f8          	mov    -0x8(%rbp),%rax
     790:	48 c1 e0 20          	shl    $0x20,%rax
     794:	48 09 45 f0          	or     %rax,-0x10(%rbp)
     798:	0f ae f0             	mfence 
     79b:	48 8b 45 f0          	mov    -0x10(%rbp),%rax
     79f:	5d                   	pop    %rbp
     7a0:	c3                   	retq   

00000000000007a1 <maccess>:
     7a1:	55                   	push   %rbp
     7a2:	48 89 e5             	mov    %rsp,%rbp
     7a5:	48 89 7d f8          	mov    %rdi,-0x8(%rbp)
     7a9:	48 8b 55 f8          	mov    -0x8(%rbp),%rdx
     7ad:	48 89 d1             	mov    %rdx,%rcx
     7b0:	48 8b 01             	mov    (%rcx),%rax
     7b3:	90                   	nop
     7b4:	5d                   	pop    %rbp
     7b5:	c3                   	retq   

00000000000007b6 <flush>:
     7b6:	55                   	push   %rbp
     7b7:	48 89 e5             	mov    %rsp,%rbp
     7ba:	48 89 7d f8          	mov    %rdi,-0x8(%rbp)
     7be:	48 8b 55 f8          	mov    -0x8(%rbp),%rdx
     7c2:	48 89 d1             	mov    %rdx,%rcx
     7c5:	0f ae 39             	clflush (%rcx)
     7c8:	90                   	nop
     7c9:	5d                   	pop    %rbp
     7ca:	c3                   	retq   

00000000000007cb <l1_evict>:
     7cb:	55                   	push   %rbp
     7cc:	48 89 e5             	mov    %rsp,%rbp
     7cf:	48 81 ec c0 00 00 00 	sub    $0xc0,%rsp
     7d6:	48 89 bd 48 ff ff ff 	mov    %rdi,-0xb8(%rbp)
     7dd:	64 48 8b 04 25 28 00 	mov    %fs:0x28,%rax
     7e4:	00 00 
     7e6:	48 89 45 f8          	mov    %rax,-0x8(%rbp)
     7ea:	31 c0                	xor    %eax,%eax
     7ec:	48 8b 85 48 ff ff ff 	mov    -0xb8(%rbp),%rax
     7f3:	25 ff 0f 00 00       	and    $0xfff,%eax
     7f8:	48 89 85 58 ff ff ff 	mov    %rax,-0xa8(%rbp)
     7ff:	48 8b 85 48 ff ff ff 	mov    -0xb8(%rbp),%rax
     806:	48 89 c7             	mov    %rax,%rdi
     809:	e8 00 00 00 00       	callq  80e <l1_evict+0x43>
     80e:	48 c1 e8 0c          	shr    $0xc,%rax
     812:	83 e0 0f             	and    $0xf,%eax
     815:	48 89 85 60 ff ff ff 	mov    %rax,-0xa0(%rbp)
     81c:	c7 85 50 ff ff ff 00 	movl   $0x0,-0xb0(%rbp)
     823:	00 00 00 
     826:	e9 c3 00 00 00       	jmpq   8ee <l1_evict+0x123>
     82b:	8b 85 50 ff ff ff    	mov    -0xb0(%rbp),%eax
     831:	48 98                	cltq   
     833:	48 8d 14 c5 00 00 00 	lea    0x0(,%rax,8),%rdx
     83a:	00 
     83b:	48 8d 05 00 00 00 00 	lea    0x0(%rip),%rax        # 842 <l1_evict+0x77>
     842:	48 8b 04 02          	mov    (%rdx,%rax,1),%rax
     846:	48 85 c0             	test   %rax,%rax
     849:	75 3b                	jne    886 <l1_evict+0xbb>
     84b:	48 8b 15 00 00 00 00 	mov    0x0(%rip),%rdx        # 852 <l1_evict+0x87>
     852:	8b 85 50 ff ff ff    	mov    -0xb0(%rbp),%eax
     858:	c1 e0 0c             	shl    $0xc,%eax
     85b:	48 98                	cltq   
     85d:	48 01 d0             	add    %rdx,%rax
     860:	48 89 c7             	mov    %rax,%rdi
     863:	e8 00 00 00 00       	callq  868 <l1_evict+0x9d>
     868:	48 89 c1             	mov    %rax,%rcx
     86b:	8b 85 50 ff ff ff    	mov    -0xb0(%rbp),%eax
     871:	48 98                	cltq   
     873:	48 8d 14 c5 00 00 00 	lea    0x0(,%rax,8),%rdx
     87a:	00 
     87b:	48 8d 05 00 00 00 00 	lea    0x0(%rip),%rax        # 882 <l1_evict+0xb7>
     882:	48 89 0c 02          	mov    %rcx,(%rdx,%rax,1)
     886:	8b 85 50 ff ff ff    	mov    -0xb0(%rbp),%eax
     88c:	48 98                	cltq   
     88e:	48 8d 14 c5 00 00 00 	lea    0x0(,%rax,8),%rdx
     895:	00 
     896:	48 8d 05 00 00 00 00 	lea    0x0(%rip),%rax        # 89d <l1_evict+0xd2>
     89d:	48 8b 04 02          	mov    (%rdx,%rax,1),%rax
     8a1:	48 c1 e8 0c          	shr    $0xc,%rax
     8a5:	83 e0 0f             	and    $0xf,%eax
     8a8:	48 89 85 68 ff ff ff 	mov    %rax,-0x98(%rbp)
     8af:	48 8b 85 68 ff ff ff 	mov    -0x98(%rbp),%rax
     8b6:	48 3b 85 60 ff ff ff 	cmp    -0xa0(%rbp),%rax
     8bd:	75 15                	jne    8d4 <l1_evict+0x109>
     8bf:	8b 85 50 ff ff ff    	mov    -0xb0(%rbp),%eax
     8c5:	48 98                	cltq   
     8c7:	c7 84 85 70 ff ff ff 	movl   $0x0,-0x90(%rbp,%rax,4)
     8ce:	00 00 00 00 
     8d2:	eb 13                	jmp    8e7 <l1_evict+0x11c>
     8d4:	8b 85 50 ff ff ff    	mov    -0xb0(%rbp),%eax
     8da:	48 98                	cltq   
     8dc:	c7 84 85 70 ff ff ff 	movl   $0x1,-0x90(%rbp,%rax,4)
     8e3:	01 00 00 00 
     8e7:	83 85 50 ff ff ff 01 	addl   $0x1,-0xb0(%rbp)
     8ee:	83 bd 50 ff ff ff 1f 	cmpl   $0x1f,-0xb0(%rbp)
     8f5:	0f 8e 30 ff ff ff    	jle    82b <l1_evict+0x60>
     8fb:	c7 85 54 ff ff ff 00 	movl   $0x0,-0xac(%rbp)
     902:	00 00 00 
     905:	eb 5e                	jmp    965 <l1_evict+0x19a>
     907:	c7 85 50 ff ff ff 00 	movl   $0x0,-0xb0(%rbp)
     90e:	00 00 00 
     911:	eb 42                	jmp    955 <l1_evict+0x18a>
     913:	8b 85 50 ff ff ff    	mov    -0xb0(%rbp),%eax
     919:	48 98                	cltq   
     91b:	8b 84 85 70 ff ff ff 	mov    -0x90(%rbp,%rax,4),%eax
     922:	85 c0                	test   %eax,%eax
     924:	74 28                	je     94e <l1_evict+0x183>
     926:	48 8b 05 00 00 00 00 	mov    0x0(%rip),%rax        # 92d <l1_evict+0x162>
     92d:	8b 95 50 ff ff ff    	mov    -0xb0(%rbp),%edx
     933:	c1 e2 0c             	shl    $0xc,%edx
     936:	48 63 ca             	movslq %edx,%rcx
     939:	48 8b 95 58 ff ff ff 	mov    -0xa8(%rbp),%rdx
     940:	48 01 ca             	add    %rcx,%rdx
     943:	48 01 d0             	add    %rdx,%rax
     946:	48 89 c7             	mov    %rax,%rdi
     949:	e8 53 fe ff ff       	callq  7a1 <maccess>
     94e:	83 85 50 ff ff ff 01 	addl   $0x1,-0xb0(%rbp)
     955:	83 bd 50 ff ff ff 1f 	cmpl   $0x1f,-0xb0(%rbp)
     95c:	7e b5                	jle    913 <l1_evict+0x148>
     95e:	83 85 54 ff ff ff 01 	addl   $0x1,-0xac(%rbp)
     965:	83 bd 54 ff ff ff 63 	cmpl   $0x63,-0xac(%rbp)
     96c:	7e 99                	jle    907 <l1_evict+0x13c>
     96e:	90                   	nop
     96f:	48 8b 45 f8          	mov    -0x8(%rbp),%rax
     973:	64 48 33 04 25 28 00 	xor    %fs:0x28,%rax
     97a:	00 00 
     97c:	74 05                	je     983 <l1_evict+0x1b8>
     97e:	e8 00 00 00 00       	callq  983 <l1_evict+0x1b8>
     983:	c9                   	leaveq 
     984:	c3                   	retq   

0000000000000985 <maccess_repeat>:
     985:	55                   	push   %rbp
     986:	48 89 e5             	mov    %rsp,%rbp
     989:	48 81 ec b0 00 00 00 	sub    $0xb0,%rsp
     990:	48 89 bd 58 ff ff ff 	mov    %rdi,-0xa8(%rbp)
     997:	64 48 8b 04 25 28 00 	mov    %fs:0x28,%rax
     99e:	00 00 
     9a0:	48 89 45 f8          	mov    %rax,-0x8(%rbp)
     9a4:	31 c0                	xor    %eax,%eax
     9a6:	48 8d 85 70 ff ff ff 	lea    -0x90(%rbp),%rax
     9ad:	48 89 c6             	mov    %rax,%rsi
     9b0:	b8 00 00 00 00       	mov    $0x0,%eax
     9b5:	ba 10 00 00 00       	mov    $0x10,%edx
     9ba:	48 89 f7             	mov    %rsi,%rdi
     9bd:	48 89 d1             	mov    %rdx,%rcx
     9c0:	f3 48 ab             	rep stos %rax,%es:(%rdi)
     9c3:	c7 85 64 ff ff ff 02 	movl   $0x2,-0x9c(%rbp)
     9ca:	00 00 00 
     9cd:	8b 85 64 ff ff ff    	mov    -0x9c(%rbp),%eax
     9d3:	48 98                	cltq   
     9d5:	48 89 85 68 ff ff ff 	mov    %rax,-0x98(%rbp)
     9dc:	48 81 bd 68 ff ff ff 	cmpq   $0x3ff,-0x98(%rbp)
     9e3:	ff 03 00 00 
     9e7:	77 4d                	ja     a36 <maccess_repeat+0xb1>
     9e9:	48 8b 85 68 ff ff ff 	mov    -0x98(%rbp),%rax
     9f0:	48 c1 e8 06          	shr    $0x6,%rax
     9f4:	48 8d 14 c5 00 00 00 	lea    0x0(,%rax,8),%rdx
     9fb:	00 
     9fc:	48 8d 8d 70 ff ff ff 	lea    -0x90(%rbp),%rcx
     a03:	48 01 ca             	add    %rcx,%rdx
     a06:	48 8d 0c c5 00 00 00 	lea    0x0(,%rax,8),%rcx
     a0d:	00 
     a0e:	48 8d 85 70 ff ff ff 	lea    -0x90(%rbp),%rax
     a15:	48 01 c8             	add    %rcx,%rax
     a18:	48 8b 00             	mov    (%rax),%rax
     a1b:	48 8b 8d 68 ff ff ff 	mov    -0x98(%rbp),%rcx
     a22:	83 e1 3f             	and    $0x3f,%ecx
     a25:	be 01 00 00 00       	mov    $0x1,%esi
     a2a:	48 d3 e6             	shl    %cl,%rsi
     a2d:	48 89 f1             	mov    %rsi,%rcx
     a30:	48 09 c8             	or     %rcx,%rax
     a33:	48 89 02             	mov    %rax,(%rdx)
     a36:	48 8d 85 70 ff ff ff 	lea    -0x90(%rbp),%rax
     a3d:	48 89 c2             	mov    %rax,%rdx
     a40:	be 80 00 00 00       	mov    $0x80,%esi
     a45:	bf 00 00 00 00       	mov    $0x0,%edi
     a4a:	e8 00 00 00 00       	callq  a4f <maccess_repeat+0xca>
     a4f:	c7 85 60 ff ff ff 00 	movl   $0x0,-0xa0(%rbp)
     a56:	00 00 00 
     a59:	eb 16                	jmp    a71 <maccess_repeat+0xec>
     a5b:	48 8b 85 58 ff ff ff 	mov    -0xa8(%rbp),%rax
     a62:	48 89 c7             	mov    %rax,%rdi
     a65:	e8 37 fd ff ff       	callq  7a1 <maccess>
     a6a:	83 85 60 ff ff ff 01 	addl   $0x1,-0xa0(%rbp)
     a71:	83 bd 60 ff ff ff 63 	cmpl   $0x63,-0xa0(%rbp)
     a78:	7e e1                	jle    a5b <maccess_repeat+0xd6>
     a7a:	90                   	nop
     a7b:	48 8b 7d f8          	mov    -0x8(%rbp),%rdi
     a7f:	64 48 33 3c 25 28 00 	xor    %fs:0x28,%rdi
     a86:	00 00 
     a88:	74 05                	je     a8f <maccess_repeat+0x10a>
     a8a:	e8 00 00 00 00       	callq  a8f <maccess_repeat+0x10a>
     a8f:	c9                   	leaveq 
     a90:	c3                   	retq   

0000000000000a91 <l2_evict>:
     a91:	55                   	push   %rbp
     a92:	48 89 e5             	mov    %rsp,%rbp
     a95:	48 83 ec 30          	sub    $0x30,%rsp
     a99:	48 89 7d d8          	mov    %rdi,-0x28(%rbp)
     a9d:	64 48 8b 04 25 28 00 	mov    %fs:0x28,%rax
     aa4:	00 00 
     aa6:	48 89 45 f8          	mov    %rax,-0x8(%rbp)
     aaa:	31 c0                	xor    %eax,%eax
     aac:	48 8b 45 d8          	mov    -0x28(%rbp),%rax
     ab0:	48 89 c7             	mov    %rax,%rdi
     ab3:	e8 fe fc ff ff       	callq  7b6 <flush>
     ab8:	48 8b 55 d8          	mov    -0x28(%rbp),%rdx
     abc:	48 8d 45 f0          	lea    -0x10(%rbp),%rax
     ac0:	48 89 d1             	mov    %rdx,%rcx
     ac3:	48 8d 15 bb fe ff ff 	lea    -0x145(%rip),%rdx        # 985 <maccess_repeat>
     aca:	be 00 00 00 00       	mov    $0x0,%esi
     acf:	48 89 c7             	mov    %rax,%rdi
     ad2:	e8 00 00 00 00       	callq  ad7 <l2_evict+0x46>
     ad7:	89 45 ec             	mov    %eax,-0x14(%rbp)
     ada:	48 8b 45 f0          	mov    -0x10(%rbp),%rax
     ade:	be 00 00 00 00       	mov    $0x0,%esi
     ae3:	48 89 c7             	mov    %rax,%rdi
     ae6:	e8 00 00 00 00       	callq  aeb <l2_evict+0x5a>
     aeb:	90                   	nop
     aec:	48 8b 45 f8          	mov    -0x8(%rbp),%rax
     af0:	64 48 33 04 25 28 00 	xor    %fs:0x28,%rax
     af7:	00 00 
     af9:	74 05                	je     b00 <l2_evict+0x6f>
     afb:	e8 00 00 00 00       	callq  b00 <l2_evict+0x6f>
     b00:	c9                   	leaveq 
     b01:	c3                   	retq   

0000000000000b02 <libkdump_virt_to_phys_kernel_module>:
     b02:	55                   	push   %rbp
     b03:	48 89 e5             	mov    %rsp,%rbp
     b06:	48 83 ec 10          	sub    $0x10,%rsp
     b0a:	48 89 7d f8          	mov    %rdi,-0x8(%rbp)
     b0e:	48 8b 45 f8          	mov    -0x8(%rbp),%rax
     b12:	49 89 c0             	mov    %rax,%r8
     b15:	b9 04 00 00 00       	mov    $0x4,%ecx
     b1a:	48 8d 15 00 00 00 00 	lea    0x0(%rip),%rdx        # b21 <libkdump_virt_to_phys_kernel_module+0x1f>
     b21:	be 28 00 00 00       	mov    $0x28,%esi
     b26:	48 8d 3d 00 00 00 00 	lea    0x0(%rip),%rdi        # b2d <libkdump_virt_to_phys_kernel_module+0x2b>
     b2d:	b8 00 00 00 00       	mov    $0x0,%eax
     b32:	e8 00 00 00 00       	callq  b37 <libkdump_virt_to_phys_kernel_module+0x35>
     b37:	48 8d 3d 00 00 00 00 	lea    0x0(%rip),%rdi        # b3e <libkdump_virt_to_phys_kernel_module+0x3c>
     b3e:	e8 00 00 00 00       	callq  b43 <libkdump_virt_to_phys_kernel_module+0x41>
     b43:	48 89 c2             	mov    %rax,%rdx
     b46:	8b 05 00 00 00 00    	mov    0x0(%rip),%eax        # b4c <libkdump_virt_to_phys_kernel_module+0x4a>
     b4c:	48 8d 35 00 00 00 00 	lea    0x0(%rip),%rsi        # b53 <libkdump_virt_to_phys_kernel_module+0x51>
     b53:	89 c7                	mov    %eax,%edi
     b55:	e8 00 00 00 00       	callq  b5a <libkdump_virt_to_phys_kernel_module+0x58>
     b5a:	c9                   	leaveq 
     b5b:	c3                   	retq   

0000000000000b5c <set_reserved_bit>:
     b5c:	55                   	push   %rbp
     b5d:	48 89 e5             	mov    %rsp,%rbp
     b60:	48 83 ec 10          	sub    $0x10,%rsp
     b64:	48 89 7d f8          	mov    %rdi,-0x8(%rbp)
     b68:	48 8b 45 f8          	mov    -0x8(%rbp),%rax
     b6c:	49 89 c0             	mov    %rax,%r8
     b6f:	b9 03 00 00 00       	mov    $0x3,%ecx
     b74:	48 8d 15 00 00 00 00 	lea    0x0(%rip),%rdx        # b7b <set_reserved_bit+0x1f>
     b7b:	be 28 00 00 00       	mov    $0x28,%esi
     b80:	48 8d 3d 00 00 00 00 	lea    0x0(%rip),%rdi        # b87 <set_reserved_bit+0x2b>
     b87:	b8 00 00 00 00       	mov    $0x0,%eax
     b8c:	e8 00 00 00 00       	callq  b91 <set_reserved_bit+0x35>
     b91:	48 8d 3d 00 00 00 00 	lea    0x0(%rip),%rdi        # b98 <set_reserved_bit+0x3c>
     b98:	e8 00 00 00 00       	callq  b9d <set_reserved_bit+0x41>
     b9d:	48 89 c2             	mov    %rax,%rdx
     ba0:	8b 05 00 00 00 00    	mov    0x0(%rip),%eax        # ba6 <set_reserved_bit+0x4a>
     ba6:	48 8d 35 00 00 00 00 	lea    0x0(%rip),%rsi        # bad <set_reserved_bit+0x51>
     bad:	89 c7                	mov    %eax,%edi
     baf:	e8 00 00 00 00       	callq  bb4 <set_reserved_bit+0x58>
     bb4:	c9                   	leaveq 
     bb5:	c3                   	retq   

0000000000000bb6 <set_p_flag>:
     bb6:	55                   	push   %rbp
     bb7:	48 89 e5             	mov    %rsp,%rbp
     bba:	48 83 ec 10          	sub    $0x10,%rsp
     bbe:	48 89 7d f8          	mov    %rdi,-0x8(%rbp)
     bc2:	48 8b 45 f8          	mov    -0x8(%rbp),%rax
     bc6:	49 89 c0             	mov    %rax,%r8
     bc9:	b9 07 00 00 00       	mov    $0x7,%ecx
     bce:	48 8d 15 00 00 00 00 	lea    0x0(%rip),%rdx        # bd5 <set_p_flag+0x1f>
     bd5:	be 28 00 00 00       	mov    $0x28,%esi
     bda:	48 8d 3d 00 00 00 00 	lea    0x0(%rip),%rdi        # be1 <set_p_flag+0x2b>
     be1:	b8 00 00 00 00       	mov    $0x0,%eax
     be6:	e8 00 00 00 00       	callq  beb <set_p_flag+0x35>
     beb:	48 8d 3d 00 00 00 00 	lea    0x0(%rip),%rdi        # bf2 <set_p_flag+0x3c>
     bf2:	e8 00 00 00 00       	callq  bf7 <set_p_flag+0x41>
     bf7:	48 89 c2             	mov    %rax,%rdx
     bfa:	8b 05 00 00 00 00    	mov    0x0(%rip),%eax        # c00 <set_p_flag+0x4a>
     c00:	48 8d 35 00 00 00 00 	lea    0x0(%rip),%rsi        # c07 <set_p_flag+0x51>
     c07:	89 c7                	mov    %eax,%edi
     c09:	e8 00 00 00 00       	callq  c0e <set_p_flag+0x58>
     c0e:	c9                   	leaveq 
     c0f:	c3                   	retq   

0000000000000c10 <set_rw_flag>:
     c10:	55                   	push   %rbp
     c11:	48 89 e5             	mov    %rsp,%rbp
     c14:	48 83 ec 10          	sub    $0x10,%rsp
     c18:	48 89 7d f8          	mov    %rdi,-0x8(%rbp)
     c1c:	48 8b 45 f8          	mov    -0x8(%rbp),%rax
     c20:	49 89 c0             	mov    %rax,%r8
     c23:	b9 08 00 00 00       	mov    $0x8,%ecx
     c28:	48 8d 15 00 00 00 00 	lea    0x0(%rip),%rdx        # c2f <set_rw_flag+0x1f>
     c2f:	be 28 00 00 00       	mov    $0x28,%esi
     c34:	48 8d 3d 00 00 00 00 	lea    0x0(%rip),%rdi        # c3b <set_rw_flag+0x2b>
     c3b:	b8 00 00 00 00       	mov    $0x0,%eax
     c40:	e8 00 00 00 00       	callq  c45 <set_rw_flag+0x35>
     c45:	48 8d 3d 00 00 00 00 	lea    0x0(%rip),%rdi        # c4c <set_rw_flag+0x3c>
     c4c:	e8 00 00 00 00       	callq  c51 <set_rw_flag+0x41>
     c51:	48 89 c2             	mov    %rax,%rdx
     c54:	8b 05 00 00 00 00    	mov    0x0(%rip),%eax        # c5a <set_rw_flag+0x4a>
     c5a:	48 8d 35 00 00 00 00 	lea    0x0(%rip),%rsi        # c61 <set_rw_flag+0x51>
     c61:	89 c7                	mov    %eax,%edi
     c63:	e8 00 00 00 00       	callq  c68 <set_rw_flag+0x58>
     c68:	c9                   	leaveq 
     c69:	c3                   	retq   

0000000000000c6a <set_xd_flag>:
     c6a:	55                   	push   %rbp
     c6b:	48 89 e5             	mov    %rsp,%rbp
     c6e:	48 83 ec 10          	sub    $0x10,%rsp
     c72:	48 89 7d f8          	mov    %rdi,-0x8(%rbp)
     c76:	48 8b 45 f8          	mov    -0x8(%rbp),%rax
     c7a:	49 89 c0             	mov    %rax,%r8
     c7d:	b9 09 00 00 00       	mov    $0x9,%ecx
     c82:	48 8d 15 00 00 00 00 	lea    0x0(%rip),%rdx        # c89 <set_xd_flag+0x1f>
     c89:	be 28 00 00 00       	mov    $0x28,%esi
     c8e:	48 8d 3d 00 00 00 00 	lea    0x0(%rip),%rdi        # c95 <set_xd_flag+0x2b>
     c95:	b8 00 00 00 00       	mov    $0x0,%eax
     c9a:	e8 00 00 00 00       	callq  c9f <set_xd_flag+0x35>
     c9f:	48 8d 3d 00 00 00 00 	lea    0x0(%rip),%rdi        # ca6 <set_xd_flag+0x3c>
     ca6:	e8 00 00 00 00       	callq  cab <set_xd_flag+0x41>
     cab:	48 89 c2             	mov    %rax,%rdx
     cae:	8b 05 00 00 00 00    	mov    0x0(%rip),%eax        # cb4 <set_xd_flag+0x4a>
     cb4:	48 8d 35 00 00 00 00 	lea    0x0(%rip),%rsi        # cbb <set_xd_flag+0x51>
     cbb:	89 c7                	mov    %eax,%edi
     cbd:	e8 00 00 00 00       	callq  cc2 <set_xd_flag+0x58>
     cc2:	c9                   	leaveq 
     cc3:	c3                   	retq   

0000000000000cc4 <libkdump_load_tlb>:
     cc4:	55                   	push   %rbp
     cc5:	48 89 e5             	mov    %rsp,%rbp
     cc8:	48 83 ec 10          	sub    $0x10,%rsp
     ccc:	48 89 7d f8          	mov    %rdi,-0x8(%rbp)
     cd0:	48 8b 45 f8          	mov    -0x8(%rbp),%rax
     cd4:	49 89 c0             	mov    %rax,%r8
     cd7:	b9 02 00 00 00       	mov    $0x2,%ecx
     cdc:	48 8d 15 00 00 00 00 	lea    0x0(%rip),%rdx        # ce3 <libkdump_load_tlb+0x1f>
     ce3:	be 28 00 00 00       	mov    $0x28,%esi
     ce8:	48 8d 3d 00 00 00 00 	lea    0x0(%rip),%rdi        # cef <libkdump_load_tlb+0x2b>
     cef:	b8 00 00 00 00       	mov    $0x0,%eax
     cf4:	e8 00 00 00 00       	callq  cf9 <libkdump_load_tlb+0x35>
     cf9:	48 8d 3d 00 00 00 00 	lea    0x0(%rip),%rdi        # d00 <libkdump_load_tlb+0x3c>
     d00:	e8 00 00 00 00       	callq  d05 <libkdump_load_tlb+0x41>
     d05:	48 89 c2             	mov    %rax,%rdx
     d08:	8b 05 00 00 00 00    	mov    0x0(%rip),%eax        # d0e <libkdump_load_tlb+0x4a>
     d0e:	48 8d 35 00 00 00 00 	lea    0x0(%rip),%rsi        # d15 <libkdump_load_tlb+0x51>
     d15:	89 c7                	mov    %eax,%edi
     d17:	e8 00 00 00 00       	callq  d1c <libkdump_load_tlb+0x58>
     d1c:	c9                   	leaveq 
     d1d:	c3                   	retq   

0000000000000d1e <libkdump_flush_tlb>:
     d1e:	55                   	push   %rbp
     d1f:	48 89 e5             	mov    %rsp,%rbp
     d22:	48 83 ec 10          	sub    $0x10,%rsp
     d26:	48 89 7d f8          	mov    %rdi,-0x8(%rbp)
     d2a:	48 8b 45 f8          	mov    -0x8(%rbp),%rax
     d2e:	49 89 c0             	mov    %rax,%r8
     d31:	b9 01 00 00 00       	mov    $0x1,%ecx
     d36:	48 8d 15 00 00 00 00 	lea    0x0(%rip),%rdx        # d3d <libkdump_flush_tlb+0x1f>
     d3d:	be 28 00 00 00       	mov    $0x28,%esi
     d42:	48 8d 3d 00 00 00 00 	lea    0x0(%rip),%rdi        # d49 <libkdump_flush_tlb+0x2b>
     d49:	b8 00 00 00 00       	mov    $0x0,%eax
     d4e:	e8 00 00 00 00       	callq  d53 <libkdump_flush_tlb+0x35>
     d53:	48 8d 3d 00 00 00 00 	lea    0x0(%rip),%rdi        # d5a <libkdump_flush_tlb+0x3c>
     d5a:	e8 00 00 00 00       	callq  d5f <libkdump_flush_tlb+0x41>
     d5f:	48 89 c2             	mov    %rax,%rdx
     d62:	8b 05 00 00 00 00    	mov    0x0(%rip),%eax        # d68 <libkdump_flush_tlb+0x4a>
     d68:	48 8d 35 00 00 00 00 	lea    0x0(%rip),%rsi        # d6f <libkdump_flush_tlb+0x51>
     d6f:	89 c7                	mov    %eax,%edi
     d71:	e8 00 00 00 00       	callq  d76 <libkdump_flush_tlb+0x58>
     d76:	c9                   	leaveq 
     d77:	c3                   	retq   

0000000000000d78 <libkdump_flush_tlb_all>:
     d78:	55                   	push   %rbp
     d79:	48 89 e5             	mov    %rsp,%rbp
     d7c:	b9 00 00 00 00       	mov    $0x0,%ecx
     d81:	48 8d 15 00 00 00 00 	lea    0x0(%rip),%rdx        # d88 <libkdump_flush_tlb_all+0x10>
     d88:	be 28 00 00 00       	mov    $0x28,%esi
     d8d:	48 8d 3d 00 00 00 00 	lea    0x0(%rip),%rdi        # d94 <libkdump_flush_tlb_all+0x1c>
     d94:	b8 00 00 00 00       	mov    $0x0,%eax
     d99:	e8 00 00 00 00       	callq  d9e <libkdump_flush_tlb_all+0x26>
     d9e:	48 8d 3d 00 00 00 00 	lea    0x0(%rip),%rdi        # da5 <libkdump_flush_tlb_all+0x2d>
     da5:	e8 00 00 00 00       	callq  daa <libkdump_flush_tlb_all+0x32>
     daa:	48 89 c2             	mov    %rax,%rdx
     dad:	8b 05 00 00 00 00    	mov    0x0(%rip),%eax        # db3 <libkdump_flush_tlb_all+0x3b>
     db3:	48 8d 35 00 00 00 00 	lea    0x0(%rip),%rsi        # dba <libkdump_flush_tlb_all+0x42>
     dba:	89 c7                	mov    %eax,%edi
     dbc:	e8 00 00 00 00       	callq  dc1 <libkdump_flush_tlb_all+0x49>
     dc1:	5d                   	pop    %rbp
     dc2:	c3                   	retq   

0000000000000dc3 <libkdump_kernel_read_CR4>:
     dc3:	55                   	push   %rbp
     dc4:	48 89 e5             	mov    %rsp,%rbp
     dc7:	b9 0a 00 00 00       	mov    $0xa,%ecx
     dcc:	48 8d 15 00 00 00 00 	lea    0x0(%rip),%rdx        # dd3 <libkdump_kernel_read_CR4+0x10>
     dd3:	be 28 00 00 00       	mov    $0x28,%esi
     dd8:	48 8d 3d 00 00 00 00 	lea    0x0(%rip),%rdi        # ddf <libkdump_kernel_read_CR4+0x1c>
     ddf:	b8 00 00 00 00       	mov    $0x0,%eax
     de4:	e8 00 00 00 00       	callq  de9 <libkdump_kernel_read_CR4+0x26>
     de9:	48 8d 3d 00 00 00 00 	lea    0x0(%rip),%rdi        # df0 <libkdump_kernel_read_CR4+0x2d>
     df0:	e8 00 00 00 00       	callq  df5 <libkdump_kernel_read_CR4+0x32>
     df5:	48 89 c2             	mov    %rax,%rdx
     df8:	8b 05 00 00 00 00    	mov    0x0(%rip),%eax        # dfe <libkdump_kernel_read_CR4+0x3b>
     dfe:	48 8d 35 00 00 00 00 	lea    0x0(%rip),%rsi        # e05 <libkdump_kernel_read_CR4+0x42>
     e05:	89 c7                	mov    %eax,%edi
     e07:	e8 00 00 00 00       	callq  e0c <libkdump_kernel_read_CR4+0x49>
     e0c:	5d                   	pop    %rbp
     e0d:	c3                   	retq   

0000000000000e0e <libkdump_kernel_read_MSR>:
     e0e:	55                   	push   %rbp
     e0f:	48 89 e5             	mov    %rsp,%rbp
     e12:	48 83 ec 10          	sub    $0x10,%rsp
     e16:	48 89 7d f8          	mov    %rdi,-0x8(%rbp)
     e1a:	48 8b 45 f8          	mov    -0x8(%rbp),%rax
     e1e:	49 89 c0             	mov    %rax,%r8
     e21:	b9 0b 00 00 00       	mov    $0xb,%ecx
     e26:	48 8d 15 00 00 00 00 	lea    0x0(%rip),%rdx        # e2d <libkdump_kernel_read_MSR+0x1f>
     e2d:	be 28 00 00 00       	mov    $0x28,%esi
     e32:	48 8d 3d 00 00 00 00 	lea    0x0(%rip),%rdi        # e39 <libkdump_kernel_read_MSR+0x2b>
     e39:	b8 00 00 00 00       	mov    $0x0,%eax
     e3e:	e8 00 00 00 00       	callq  e43 <libkdump_kernel_read_MSR+0x35>
     e43:	48 8d 3d 00 00 00 00 	lea    0x0(%rip),%rdi        # e4a <libkdump_kernel_read_MSR+0x3c>
     e4a:	e8 00 00 00 00       	callq  e4f <libkdump_kernel_read_MSR+0x41>
     e4f:	48 89 c2             	mov    %rax,%rdx
     e52:	8b 05 00 00 00 00    	mov    0x0(%rip),%eax        # e58 <libkdump_kernel_read_MSR+0x4a>
     e58:	48 8d 35 00 00 00 00 	lea    0x0(%rip),%rsi        # e5f <libkdump_kernel_read_MSR+0x51>
     e5f:	89 c7                	mov    %eax,%edi
     e61:	e8 00 00 00 00       	callq  e66 <libkdump_kernel_read_MSR+0x58>
     e66:	c9                   	leaveq 
     e67:	c3                   	retq   

0000000000000e68 <libkdump_prepare_data_condition>:
     e68:	55                   	push   %rbp
     e69:	48 89 e5             	mov    %rsp,%rbp
     e6c:	48 83 ec 20          	sub    $0x20,%rsp
     e70:	48 89 7d e8          	mov    %rdi,-0x18(%rbp)
     e74:	89 75 e4             	mov    %esi,-0x1c(%rbp)
     e77:	89 55 e0             	mov    %edx,-0x20(%rbp)
     e7a:	8b 45 e4             	mov    -0x1c(%rbp),%eax
     e7d:	83 f8 01             	cmp    $0x1,%eax
     e80:	74 17                	je     e99 <libkdump_prepare_data_condition+0x31>
     e82:	83 f8 01             	cmp    $0x1,%eax
     e85:	7f 06                	jg     e8d <libkdump_prepare_data_condition+0x25>
     e87:	85 c0                	test   %eax,%eax
     e89:	74 44                	je     ecf <libkdump_prepare_data_condition+0x67>
     e8b:	eb 4f                	jmp    edc <libkdump_prepare_data_condition+0x74>
     e8d:	83 f8 02             	cmp    $0x2,%eax
     e90:	74 15                	je     ea7 <libkdump_prepare_data_condition+0x3f>
     e92:	83 f8 03             	cmp    $0x3,%eax
     e95:	74 2a                	je     ec1 <libkdump_prepare_data_condition+0x59>
     e97:	eb 43                	jmp    edc <libkdump_prepare_data_condition+0x74>
     e99:	48 8b 45 e8          	mov    -0x18(%rbp),%rax
     e9d:	48 89 c7             	mov    %rax,%rdi
     ea0:	e8 fc f8 ff ff       	callq  7a1 <maccess>
     ea5:	eb 35                	jmp    edc <libkdump_prepare_data_condition+0x74>
     ea7:	48 8b 45 e8          	mov    -0x18(%rbp),%rax
     eab:	48 89 c7             	mov    %rax,%rdi
     eae:	e8 ee f8 ff ff       	callq  7a1 <maccess>
     eb3:	48 8b 45 e8          	mov    -0x18(%rbp),%rax
     eb7:	48 89 c7             	mov    %rax,%rdi
     eba:	e8 0c f9 ff ff       	callq  7cb <l1_evict>
     ebf:	eb 1b                	jmp    edc <libkdump_prepare_data_condition+0x74>
     ec1:	48 8b 45 e8          	mov    -0x18(%rbp),%rax
     ec5:	48 89 c7             	mov    %rax,%rdi
     ec8:	e8 c4 fb ff ff       	callq  a91 <l2_evict>
     ecd:	eb 0d                	jmp    edc <libkdump_prepare_data_condition+0x74>
     ecf:	48 8b 45 e8          	mov    -0x18(%rbp),%rax
     ed3:	48 89 c7             	mov    %rax,%rdi
     ed6:	e8 db f8 ff ff       	callq  7b6 <flush>
     edb:	90                   	nop
     edc:	0f ae f0             	mfence 
     edf:	83 7d e0 01          	cmpl   $0x1,-0x20(%rbp)
     ee3:	75 14                	jne    ef9 <libkdump_prepare_data_condition+0x91>
     ee5:	48 8b 05 00 00 00 00 	mov    0x0(%rip),%rax        # eec <libkdump_prepare_data_condition+0x84>
     eec:	48 89 c7             	mov    %rax,%rdi
     eef:	e8 00 00 00 00       	callq  ef4 <libkdump_prepare_data_condition+0x8c>
     ef4:	89 45 fc             	mov    %eax,-0x4(%rbp)
     ef7:	eb 18                	jmp    f11 <libkdump_prepare_data_condition+0xa9>
     ef9:	83 7d e0 00          	cmpl   $0x0,-0x20(%rbp)
     efd:	75 12                	jne    f11 <libkdump_prepare_data_condition+0xa9>
     eff:	48 8b 05 00 00 00 00 	mov    0x0(%rip),%rax        # f06 <libkdump_prepare_data_condition+0x9e>
     f06:	48 89 c7             	mov    %rax,%rdi
     f09:	e8 00 00 00 00       	callq  f0e <libkdump_prepare_data_condition+0xa6>
     f0e:	89 45 fc             	mov    %eax,-0x4(%rbp)
     f11:	90                   	nop
     f12:	c9                   	leaveq 
     f13:	c3                   	retq   

0000000000000f14 <libkdump_page_table_set_bit>:
     f14:	55                   	push   %rbp
     f15:	48 89 e5             	mov    %rsp,%rbp
     f18:	48 89 7d f8          	mov    %rdi,-0x8(%rbp)
     f1c:	89 75 f4             	mov    %esi,-0xc(%rbp)
     f1f:	90                   	nop
     f20:	5d                   	pop    %rbp
     f21:	c3                   	retq   

0000000000000f22 <nopthread>:
     f22:	55                   	push   %rbp
     f23:	48 89 e5             	mov    %rsp,%rbp
     f26:	48 89 7d f8          	mov    %rdi,-0x8(%rbp)
     f2a:	90                   	nop
     f2b:	eb fd                	jmp    f2a <nopthread+0x8>

0000000000000f2d <syncthread>:
     f2d:	55                   	push   %rbp
     f2e:	48 89 e5             	mov    %rsp,%rbp
     f31:	48 83 ec 10          	sub    $0x10,%rsp
     f35:	48 89 7d f8          	mov    %rdi,-0x8(%rbp)
     f39:	e8 00 00 00 00       	callq  f3e <syncthread+0x11>
     f3e:	eb f9                	jmp    f39 <syncthread+0xc>

0000000000000f40 <yieldthread>:
     f40:	55                   	push   %rbp
     f41:	48 89 e5             	mov    %rsp,%rbp
     f44:	48 83 ec 10          	sub    $0x10,%rsp
     f48:	48 89 7d f8          	mov    %rdi,-0x8(%rbp)
     f4c:	e8 00 00 00 00       	callq  f51 <yieldthread+0x11>
     f51:	eb f9                	jmp    f4c <yieldthread+0xc>

0000000000000f53 <fputhread>:
     f53:	55                   	push   %rbp
     f54:	48 89 e5             	mov    %rsp,%rbp
     f57:	48 81 ec b0 00 00 00 	sub    $0xb0,%rsp
     f5e:	48 89 bd 58 ff ff ff 	mov    %rdi,-0xa8(%rbp)
     f65:	64 48 8b 04 25 28 00 	mov    %fs:0x28,%rax
     f6c:	00 00 
     f6e:	48 89 45 f8          	mov    %rax,-0x8(%rbp)
     f72:	31 c0                	xor    %eax,%eax
     f74:	48 8d 85 70 ff ff ff 	lea    -0x90(%rbp),%rax
     f7b:	48 89 c6             	mov    %rax,%rsi
     f7e:	b8 00 00 00 00       	mov    $0x0,%eax
     f83:	ba 10 00 00 00       	mov    $0x10,%edx
     f88:	48 89 f7             	mov    %rsi,%rdi
     f8b:	48 89 d1             	mov    %rdx,%rcx
     f8e:	f3 48 ab             	rep stos %rax,%es:(%rdi)
     f91:	c7 85 64 ff ff ff 03 	movl   $0x3,-0x9c(%rbp)
     f98:	00 00 00 
     f9b:	8b 85 64 ff ff ff    	mov    -0x9c(%rbp),%eax
     fa1:	48 98                	cltq   
     fa3:	48 89 85 68 ff ff ff 	mov    %rax,-0x98(%rbp)
     faa:	48 81 bd 68 ff ff ff 	cmpq   $0x3ff,-0x98(%rbp)
     fb1:	ff 03 00 00 
     fb5:	77 4d                	ja     1004 <fputhread+0xb1>
     fb7:	48 8b 85 68 ff ff ff 	mov    -0x98(%rbp),%rax
     fbe:	48 c1 e8 06          	shr    $0x6,%rax
     fc2:	48 8d 14 c5 00 00 00 	lea    0x0(,%rax,8),%rdx
     fc9:	00 
     fca:	48 8d 8d 70 ff ff ff 	lea    -0x90(%rbp),%rcx
     fd1:	48 01 ca             	add    %rcx,%rdx
     fd4:	48 8d 0c c5 00 00 00 	lea    0x0(,%rax,8),%rcx
     fdb:	00 
     fdc:	48 8d 85 70 ff ff ff 	lea    -0x90(%rbp),%rax
     fe3:	48 01 c8             	add    %rcx,%rax
     fe6:	48 8b 00             	mov    (%rax),%rax
     fe9:	48 8b 8d 68 ff ff ff 	mov    -0x98(%rbp),%rcx
     ff0:	83 e1 3f             	and    $0x3f,%ecx
     ff3:	be 01 00 00 00       	mov    $0x1,%esi
     ff8:	48 d3 e6             	shl    %cl,%rsi
     ffb:	48 89 f1             	mov    %rsi,%rcx
     ffe:	48 09 c8             	or     %rcx,%rax
    1001:	48 89 02             	mov    %rax,(%rdx)
    1004:	48 8d 85 70 ff ff ff 	lea    -0x90(%rbp),%rax
    100b:	48 89 c2             	mov    %rax,%rdx
    100e:	be 80 00 00 00       	mov    $0x80,%esi
    1013:	bf 00 00 00 00       	mov    $0x0,%edi
    1018:	e8 00 00 00 00       	callq  101d <fputhread+0xca>
    101d:	48 c7 c0 00 20 04 00 	mov    $0x42000,%rax
    1024:	66 48 0f 6e c0       	movq   %rax,%xmm0
    1029:	e8 00 00 00 00       	callq  102e <fputhread+0xdb>
    102e:	eb ed                	jmp    101d <fputhread+0xca>

0000000000001030 <libkdump_virt_to_phys>:
    1030:	55                   	push   %rbp
    1031:	48 89 e5             	mov    %rsp,%rbp
    1034:	48 83 ec 30          	sub    $0x30,%rsp
    1038:	48 89 7d d8          	mov    %rdi,-0x28(%rbp)
    103c:	64 48 8b 04 25 28 00 	mov    %fs:0x28,%rax
    1043:	00 00 
    1045:	48 89 45 f8          	mov    %rax,-0x8(%rbp)
    1049:	31 c0                	xor    %eax,%eax
    104b:	8b 05 00 00 00 00    	mov    0x0(%rip),%eax        # 1051 <libkdump_virt_to_phys+0x21>
    1051:	83 f8 ff             	cmp    $0xffffffff,%eax
    1054:	75 3b                	jne    1091 <libkdump_virt_to_phys+0x61>
    1056:	be 00 00 00 00       	mov    $0x0,%esi
    105b:	48 8d 3d 00 00 00 00 	lea    0x0(%rip),%rdi        # 1062 <libkdump_virt_to_phys+0x32>
    1062:	b8 00 00 00 00       	mov    $0x0,%eax
    1067:	e8 00 00 00 00       	callq  106c <libkdump_virt_to_phys+0x3c>
    106c:	89 05 00 00 00 00    	mov    %eax,0x0(%rip)        # 1072 <libkdump_virt_to_phys+0x42>
    1072:	8b 05 00 00 00 00    	mov    0x0(%rip),%eax        # 1078 <libkdump_virt_to_phys+0x48>
    1078:	85 c0                	test   %eax,%eax
    107a:	79 15                	jns    1091 <libkdump_virt_to_phys+0x61>
    107c:	e8 00 00 00 00       	callq  1081 <libkdump_virt_to_phys+0x51>
    1081:	c7 00 01 00 00 00    	movl   $0x1,(%rax)
    1087:	b8 00 00 00 00       	mov    $0x0,%eax
    108c:	e9 88 00 00 00       	jmpq   1119 <libkdump_virt_to_phys+0xe9>
    1091:	48 8b 45 d8          	mov    -0x28(%rbp),%rax
    1095:	48 c1 e8 0c          	shr    $0xc,%rax
    1099:	48 c1 e0 03          	shl    $0x3,%rax
    109d:	48 89 c2             	mov    %rax,%rdx
    10a0:	8b 05 00 00 00 00    	mov    0x0(%rip),%eax        # 10a6 <libkdump_virt_to_phys+0x76>
    10a6:	48 8d 75 e8          	lea    -0x18(%rbp),%rsi
    10aa:	48 89 d1             	mov    %rdx,%rcx
    10ad:	ba 08 00 00 00       	mov    $0x8,%edx
    10b2:	89 c7                	mov    %eax,%edi
    10b4:	e8 00 00 00 00       	callq  10b9 <libkdump_virt_to_phys+0x89>
    10b9:	89 45 e4             	mov    %eax,-0x1c(%rbp)
    10bc:	83 7d e4 08          	cmpl   $0x8,-0x1c(%rbp)
    10c0:	74 12                	je     10d4 <libkdump_virt_to_phys+0xa4>
    10c2:	e8 00 00 00 00       	callq  10c7 <libkdump_virt_to_phys+0x97>
    10c7:	c7 00 01 00 00 00    	movl   $0x1,(%rax)
    10cd:	b8 00 00 00 00       	mov    $0x0,%eax
    10d2:	eb 45                	jmp    1119 <libkdump_virt_to_phys+0xe9>
    10d4:	48 8b 55 e8          	mov    -0x18(%rbp),%rdx
    10d8:	48 b8 ff ff ff ff ff 	movabs $0x3fffffffffffff,%rax
    10df:	ff 3f 00 
    10e2:	48 21 d0             	and    %rdx,%rax
    10e5:	48 89 45 f0          	mov    %rax,-0x10(%rbp)
    10e9:	48 83 7d f0 00       	cmpq   $0x0,-0x10(%rbp)
    10ee:	75 12                	jne    1102 <libkdump_virt_to_phys+0xd2>
    10f0:	e8 00 00 00 00       	callq  10f5 <libkdump_virt_to_phys+0xc5>
    10f5:	c7 00 01 00 00 00    	movl   $0x1,(%rax)
    10fb:	b8 00 00 00 00       	mov    $0x0,%eax
    1100:	eb 17                	jmp    1119 <libkdump_virt_to_phys+0xe9>
    1102:	48 8b 45 f0          	mov    -0x10(%rbp),%rax
    1106:	48 c1 e0 0c          	shl    $0xc,%rax
    110a:	48 89 c2             	mov    %rax,%rdx
    110d:	48 8b 45 d8          	mov    -0x28(%rbp),%rax
    1111:	25 ff 0f 00 00       	and    $0xfff,%eax
    1116:	48 01 d0             	add    %rdx,%rax
    1119:	48 8b 4d f8          	mov    -0x8(%rbp),%rcx
    111d:	64 48 33 0c 25 28 00 	xor    %fs:0x28,%rcx
    1124:	00 00 
    1126:	74 05                	je     112d <libkdump_virt_to_phys+0xfd>
    1128:	e8 00 00 00 00       	callq  112d <libkdump_virt_to_phys+0xfd>
    112d:	c9                   	leaveq 
    112e:	c3                   	retq   

000000000000112f <check_tsx>:
    112f:	55                   	push   %rbp
    1130:	48 89 e5             	mov    %rsp,%rbp
    1133:	b8 00 00 00 00       	mov    $0x0,%eax
    1138:	5d                   	pop    %rbp
    1139:	c3                   	retq   

000000000000113a <detect_fault_handling>:
    113a:	55                   	push   %rbp
    113b:	48 89 e5             	mov    %rsp,%rbp
    113e:	b8 00 00 00 00       	mov    $0x0,%eax
    1143:	e8 e7 ff ff ff       	callq  112f <check_tsx>
    1148:	85 c0                	test   %eax,%eax
    114a:	74 22                	je     116e <detect_fault_handling+0x34>
    114c:	48 8d 35 00 00 00 00 	lea    0x0(%rip),%rsi        # 1153 <detect_fault_handling+0x19>
    1153:	bf 02 00 00 00       	mov    $0x2,%edi
    1158:	b8 00 00 00 00       	mov    $0x0,%eax
    115d:	e8 0e f3 ff ff       	callq  470 <debug>
    1162:	c7 05 00 00 00 00 01 	movl   $0x1,0x0(%rip)        # 116c <detect_fault_handling+0x32>
    1169:	00 00 00 
    116c:	eb 20                	jmp    118e <detect_fault_handling+0x54>
    116e:	48 8d 35 00 00 00 00 	lea    0x0(%rip),%rsi        # 1175 <detect_fault_handling+0x3b>
    1175:	bf 01 00 00 00       	mov    $0x1,%edi
    117a:	b8 00 00 00 00       	mov    $0x0,%eax
    117f:	e8 ec f2 ff ff       	callq  470 <debug>
    1184:	c7 05 00 00 00 00 00 	movl   $0x0,0x0(%rip)        # 118e <detect_fault_handling+0x54>
    118b:	00 00 00 
    118e:	90                   	nop
    118f:	5d                   	pop    %rbp
    1190:	c3                   	retq   

0000000000001191 <detect_flush_reload_threshold>:
    1191:	55                   	push   %rbp
    1192:	48 89 e5             	mov    %rsp,%rbp
    1195:	48 81 ec d0 00 00 00 	sub    $0xd0,%rsp
    119c:	64 48 8b 04 25 28 00 	mov    %fs:0x28,%rax
    11a3:	00 00 
    11a5:	48 89 45 f8          	mov    %rax,-0x8(%rbp)
    11a9:	31 c0                	xor    %eax,%eax
    11ab:	48 c7 85 38 ff ff ff 	movq   $0x0,-0xc8(%rbp)
    11b2:	00 00 00 00 
    11b6:	48 c7 85 40 ff ff ff 	movq   $0x0,-0xc0(%rbp)
    11bd:	00 00 00 00 
    11c1:	48 c7 85 50 ff ff ff 	movq   $0xf4240,-0xb0(%rbp)
    11c8:	40 42 0f 00 
    11cc:	48 8d 85 70 ff ff ff 	lea    -0x90(%rbp),%rax
    11d3:	48 83 c0 40          	add    $0x40,%rax
    11d7:	48 89 85 58 ff ff ff 	mov    %rax,-0xa8(%rbp)
    11de:	48 c7 85 60 ff ff ff 	movq   $0x0,-0xa0(%rbp)
    11e5:	00 00 00 00 
    11e9:	48 c7 85 68 ff ff ff 	movq   $0x0,-0x98(%rbp)
    11f0:	00 00 00 00 
    11f4:	48 8b 85 58 ff ff ff 	mov    -0xa8(%rbp),%rax
    11fb:	48 89 c7             	mov    %rax,%rdi
    11fe:	e8 9e f5 ff ff       	callq  7a1 <maccess>
    1203:	48 c7 85 48 ff ff ff 	movq   $0x0,-0xb8(%rbp)
    120a:	00 00 00 00 
    120e:	eb 4e                	jmp    125e <detect_flush_reload_threshold+0xcd>
    1210:	b8 00 00 00 00       	mov    $0x0,%eax
    1215:	e8 51 f5 ff ff       	callq  76b <rdtsc>
    121a:	48 89 85 60 ff ff ff 	mov    %rax,-0xa0(%rbp)
    1221:	48 8b 85 58 ff ff ff 	mov    -0xa8(%rbp),%rax
    1228:	48 89 c7             	mov    %rax,%rdi
    122b:	e8 71 f5 ff ff       	callq  7a1 <maccess>
    1230:	b8 00 00 00 00       	mov    $0x0,%eax
    1235:	e8 31 f5 ff ff       	callq  76b <rdtsc>
    123a:	48 89 85 68 ff ff ff 	mov    %rax,-0x98(%rbp)
    1241:	48 8b 85 68 ff ff ff 	mov    -0x98(%rbp),%rax
    1248:	48 2b 85 60 ff ff ff 	sub    -0xa0(%rbp),%rax
    124f:	48 01 85 38 ff ff ff 	add    %rax,-0xc8(%rbp)
    1256:	48 83 85 48 ff ff ff 	addq   $0x1,-0xb8(%rbp)
    125d:	01 
    125e:	48 8b 85 48 ff ff ff 	mov    -0xb8(%rbp),%rax
    1265:	48 3b 85 50 ff ff ff 	cmp    -0xb0(%rbp),%rax
    126c:	72 a2                	jb     1210 <detect_flush_reload_threshold+0x7f>
    126e:	48 c7 85 48 ff ff ff 	movq   $0x0,-0xb8(%rbp)
    1275:	00 00 00 00 
    1279:	eb 5d                	jmp    12d8 <detect_flush_reload_threshold+0x147>
    127b:	b8 00 00 00 00       	mov    $0x0,%eax
    1280:	e8 e6 f4 ff ff       	callq  76b <rdtsc>
    1285:	48 89 85 60 ff ff ff 	mov    %rax,-0xa0(%rbp)
    128c:	48 8b 85 58 ff ff ff 	mov    -0xa8(%rbp),%rax
    1293:	48 89 c7             	mov    %rax,%rdi
    1296:	e8 06 f5 ff ff       	callq  7a1 <maccess>
    129b:	b8 00 00 00 00       	mov    $0x0,%eax
    12a0:	e8 c6 f4 ff ff       	callq  76b <rdtsc>
    12a5:	48 89 85 68 ff ff ff 	mov    %rax,-0x98(%rbp)
    12ac:	48 8b 85 58 ff ff ff 	mov    -0xa8(%rbp),%rax
    12b3:	48 89 c7             	mov    %rax,%rdi
    12b6:	e8 fb f4 ff ff       	callq  7b6 <flush>
    12bb:	48 8b 85 68 ff ff ff 	mov    -0x98(%rbp),%rax
    12c2:	48 2b 85 60 ff ff ff 	sub    -0xa0(%rbp),%rax
    12c9:	48 01 85 40 ff ff ff 	add    %rax,-0xc0(%rbp)
    12d0:	48 83 85 48 ff ff ff 	addq   $0x1,-0xb8(%rbp)
    12d7:	01 
    12d8:	48 8b 85 48 ff ff ff 	mov    -0xb8(%rbp),%rax
    12df:	48 3b 85 50 ff ff ff 	cmp    -0xb0(%rbp),%rax
    12e6:	72 93                	jb     127b <detect_flush_reload_threshold+0xea>
    12e8:	48 8b 85 38 ff ff ff 	mov    -0xc8(%rbp),%rax
    12ef:	ba 00 00 00 00       	mov    $0x0,%edx
    12f4:	48 f7 b5 50 ff ff ff 	divq   -0xb0(%rbp)
    12fb:	48 89 85 38 ff ff ff 	mov    %rax,-0xc8(%rbp)
    1302:	48 8b 85 40 ff ff ff 	mov    -0xc0(%rbp),%rax
    1309:	ba 00 00 00 00       	mov    $0x0,%edx
    130e:	48 f7 b5 50 ff ff ff 	divq   -0xb0(%rbp)
    1315:	48 89 85 40 ff ff ff 	mov    %rax,-0xc0(%rbp)
    131c:	48 8b 95 38 ff ff ff 	mov    -0xc8(%rbp),%rdx
    1323:	48 8b 85 40 ff ff ff 	mov    -0xc0(%rbp),%rax
    132a:	48 89 d1             	mov    %rdx,%rcx
    132d:	48 89 c2             	mov    %rax,%rdx
    1330:	48 8d 35 00 00 00 00 	lea    0x0(%rip),%rsi        # 1337 <detect_flush_reload_threshold+0x1a6>
    1337:	bf 01 00 00 00       	mov    $0x1,%edi
    133c:	b8 00 00 00 00       	mov    $0x0,%eax
    1341:	e8 2a f1 ff ff       	callq  470 <debug>
    1346:	48 8b 85 38 ff ff ff 	mov    -0xc8(%rbp),%rax
    134d:	48 8d 14 00          	lea    (%rax,%rax,1),%rdx
    1351:	48 8b 85 40 ff ff ff 	mov    -0xc0(%rbp),%rax
    1358:	48 01 d0             	add    %rdx,%rax
    135b:	48 ba ab aa aa aa aa 	movabs $0xaaaaaaaaaaaaaaab,%rdx
    1362:	aa aa aa 
    1365:	48 f7 e2             	mul    %rdx
    1368:	48 89 d0             	mov    %rdx,%rax
    136b:	48 d1 e8             	shr    %rax
    136e:	48 89 05 00 00 00 00 	mov    %rax,0x0(%rip)        # 1375 <detect_flush_reload_threshold+0x1e4>
    1375:	48 8b 05 00 00 00 00 	mov    0x0(%rip),%rax        # 137c <detect_flush_reload_threshold+0x1eb>
    137c:	48 89 c2             	mov    %rax,%rdx
    137f:	48 8d 35 00 00 00 00 	lea    0x0(%rip),%rsi        # 1386 <detect_flush_reload_threshold+0x1f5>
    1386:	bf 02 00 00 00       	mov    $0x2,%edi
    138b:	b8 00 00 00 00       	mov    $0x0,%eax
    1390:	e8 db f0 ff ff       	callq  470 <debug>
    1395:	90                   	nop
    1396:	48 8b 45 f8          	mov    -0x8(%rbp),%rax
    139a:	64 48 33 04 25 28 00 	xor    %fs:0x28,%rax
    13a1:	00 00 
    13a3:	74 05                	je     13aa <detect_flush_reload_threshold+0x219>
    13a5:	e8 00 00 00 00       	callq  13aa <detect_flush_reload_threshold+0x219>
    13aa:	c9                   	leaveq 
    13ab:	c3                   	retq   

00000000000013ac <auto_config>:
    13ac:	55                   	push   %rbp
    13ad:	48 89 e5             	mov    %rsp,%rbp
    13b0:	48 8d 35 00 00 00 00 	lea    0x0(%rip),%rsi        # 13b7 <auto_config+0xb>
    13b7:	bf 01 00 00 00       	mov    $0x1,%edi
    13bc:	b8 00 00 00 00       	mov    $0x0,%eax
    13c1:	e8 aa f0 ff ff       	callq  470 <debug>
    13c6:	b8 00 00 00 00       	mov    $0x0,%eax
    13cb:	e8 6a fd ff ff       	callq  113a <detect_fault_handling>
    13d0:	b8 00 00 00 00       	mov    $0x0,%eax
    13d5:	e8 b7 fd ff ff       	callq  1191 <detect_flush_reload_threshold>
    13da:	c7 05 00 00 00 00 03 	movl   $0x3,0x0(%rip)        # 13e4 <auto_config+0x38>
    13e1:	00 00 00 
    13e4:	c7 05 00 00 00 00 01 	movl   $0x1,0x0(%rip)        # 13ee <auto_config+0x42>
    13eb:	00 00 00 
    13ee:	c7 05 00 00 00 00 01 	movl   $0x1,0x0(%rip)        # 13f8 <auto_config+0x4c>
    13f5:	00 00 00 
    13f8:	c7 05 00 00 00 00 00 	movl   $0x0,0x0(%rip)        # 1402 <auto_config+0x56>
    13ff:	00 00 00 
    1402:	c7 05 00 00 00 00 10 	movl   $0x2710,0x0(%rip)        # 140c <auto_config+0x60>
    1409:	27 00 00 
    140c:	48 b8 00 00 00 00 00 	movabs $0xffff880000000000,%rax
    1413:	88 ff ff 
    1416:	48 89 05 00 00 00 00 	mov    %rax,0x0(%rip)        # 141d <auto_config+0x71>
    141d:	90                   	nop
    141e:	5d                   	pop    %rbp
    141f:	c3                   	retq   

0000000000001420 <check_config>:
    1420:	55                   	push   %rbp
    1421:	48 89 e5             	mov    %rsp,%rbp
    1424:	48 8b 05 00 00 00 00 	mov    0x0(%rip),%rax        # 142b <check_config+0xb>
    142b:	48 85 c0             	test   %rax,%rax
    142e:	75 0a                	jne    143a <check_config+0x1a>
    1430:	b8 00 00 00 00       	mov    $0x0,%eax
    1435:	e8 57 fd ff ff       	callq  1191 <detect_flush_reload_threshold>
    143a:	48 8b 05 00 00 00 00 	mov    0x0(%rip),%rax        # 1441 <check_config+0x21>
    1441:	48 85 c0             	test   %rax,%rax
    1444:	75 12                	jne    1458 <check_config+0x38>
    1446:	e8 00 00 00 00       	callq  144b <check_config+0x2b>
    144b:	c7 00 3e 00 00 00    	movl   $0x3e,(%rax)
    1451:	b8 ff ff ff ff       	mov    $0xffffffff,%eax
    1456:	eb 05                	jmp    145d <check_config+0x3d>
    1458:	b8 00 00 00 00       	mov    $0x0,%eax
    145d:	5d                   	pop    %rbp
    145e:	c3                   	retq   

000000000000145f <unblock_signal>:
    145f:	55                   	push   %rbp
    1460:	48 89 e5             	mov    %rsp,%rbp
    1463:	48 81 ec a0 00 00 00 	sub    $0xa0,%rsp
    146a:	89 bd 6c ff ff ff    	mov    %edi,-0x94(%rbp)
    1470:	64 48 8b 04 25 28 00 	mov    %fs:0x28,%rax
    1477:	00 00 
    1479:	48 89 45 f8          	mov    %rax,-0x8(%rbp)
    147d:	31 c0                	xor    %eax,%eax
    147f:	48 8d 85 70 ff ff ff 	lea    -0x90(%rbp),%rax
    1486:	48 89 c7             	mov    %rax,%rdi
    1489:	e8 00 00 00 00       	callq  148e <unblock_signal+0x2f>
    148e:	8b 95 6c ff ff ff    	mov    -0x94(%rbp),%edx
    1494:	48 8d 85 70 ff ff ff 	lea    -0x90(%rbp),%rax
    149b:	89 d6                	mov    %edx,%esi
    149d:	48 89 c7             	mov    %rax,%rdi
    14a0:	e8 00 00 00 00       	callq  14a5 <unblock_signal+0x46>
    14a5:	48 8d 85 70 ff ff ff 	lea    -0x90(%rbp),%rax
    14ac:	ba 00 00 00 00       	mov    $0x0,%edx
    14b1:	48 89 c6             	mov    %rax,%rsi
    14b4:	bf 01 00 00 00       	mov    $0x1,%edi
    14b9:	e8 00 00 00 00       	callq  14be <unblock_signal+0x5f>
    14be:	90                   	nop
    14bf:	48 8b 45 f8          	mov    -0x8(%rbp),%rax
    14c3:	64 48 33 04 25 28 00 	xor    %fs:0x28,%rax
    14ca:	00 00 
    14cc:	74 05                	je     14d3 <unblock_signal+0x74>
    14ce:	e8 00 00 00 00       	callq  14d3 <unblock_signal+0x74>
    14d3:	c9                   	leaveq 
    14d4:	c3                   	retq   

00000000000014d5 <segfault_handler>:
    14d5:	55                   	push   %rbp
    14d6:	48 89 e5             	mov    %rsp,%rbp
    14d9:	48 83 ec 10          	sub    $0x10,%rsp
    14dd:	89 7d fc             	mov    %edi,-0x4(%rbp)
    14e0:	bf 0b 00 00 00       	mov    $0xb,%edi
    14e5:	e8 75 ff ff ff       	callq  145f <unblock_signal>
    14ea:	be 01 00 00 00       	mov    $0x1,%esi
    14ef:	48 8d 3d 00 00 00 00 	lea    0x0(%rip),%rdi        # 14f6 <segfault_handler+0x21>
    14f6:	e8 00 00 00 00       	callq  14fb <libkdump_get_autoconfig>

00000000000014fb <libkdump_get_autoconfig>:
    14fb:	55                   	push   %rbp
    14fc:	48 89 e5             	mov    %rsp,%rbp
    14ff:	48 83 ec 10          	sub    $0x10,%rsp
    1503:	48 89 7d f8          	mov    %rdi,-0x8(%rbp)
    1507:	b8 00 00 00 00       	mov    $0x0,%eax
    150c:	e8 9b fe ff ff       	callq  13ac <auto_config>
    1511:	48 8b 45 f8          	mov    -0x8(%rbp),%rax
    1515:	48 8b 15 00 00 00 00 	mov    0x0(%rip),%rdx        # 151c <libkdump_get_autoconfig+0x21>
    151c:	48 89 10             	mov    %rdx,(%rax)
    151f:	48 8b 15 00 00 00 00 	mov    0x0(%rip),%rdx        # 1526 <libkdump_get_autoconfig+0x2b>
    1526:	48 89 50 08          	mov    %rdx,0x8(%rax)
    152a:	48 8b 15 00 00 00 00 	mov    0x0(%rip),%rdx        # 1531 <libkdump_get_autoconfig+0x36>
    1531:	48 89 50 10          	mov    %rdx,0x10(%rax)
    1535:	48 8b 15 00 00 00 00 	mov    0x0(%rip),%rdx        # 153c <libkdump_get_autoconfig+0x41>
    153c:	48 89 50 18          	mov    %rdx,0x18(%rax)
    1540:	48 8b 15 00 00 00 00 	mov    0x0(%rip),%rdx        # 1547 <libkdump_get_autoconfig+0x4c>
    1547:	48 89 50 20          	mov    %rdx,0x20(%rax)
    154b:	48 8b 15 00 00 00 00 	mov    0x0(%rip),%rdx        # 1552 <libkdump_get_autoconfig+0x57>
    1552:	48 89 50 28          	mov    %rdx,0x28(%rax)
    1556:	48 8b 15 00 00 00 00 	mov    0x0(%rip),%rdx        # 155d <libkdump_get_autoconfig+0x62>
    155d:	48 89 50 30          	mov    %rdx,0x30(%rax)
    1561:	48 8b 45 f8          	mov    -0x8(%rbp),%rax
    1565:	c9                   	leaveq 
    1566:	c3                   	retq   

0000000000001567 <libkdump_init>:
    1567:	55                   	push   %rbp
    1568:	48 89 e5             	mov    %rsp,%rbp
    156b:	48 83 ec 30          	sub    $0x30,%rsp
    156f:	48 8b 45 10          	mov    0x10(%rbp),%rax
    1573:	48 89 05 00 00 00 00 	mov    %rax,0x0(%rip)        # 157a <libkdump_init+0x13>
    157a:	48 8b 45 18          	mov    0x18(%rbp),%rax
    157e:	48 89 05 00 00 00 00 	mov    %rax,0x0(%rip)        # 1585 <libkdump_init+0x1e>
    1585:	48 8b 45 20          	mov    0x20(%rbp),%rax
    1589:	48 89 05 00 00 00 00 	mov    %rax,0x0(%rip)        # 1590 <libkdump_init+0x29>
    1590:	48 8b 45 28          	mov    0x28(%rbp),%rax
    1594:	48 89 05 00 00 00 00 	mov    %rax,0x0(%rip)        # 159b <libkdump_init+0x34>
    159b:	48 8b 45 30          	mov    0x30(%rbp),%rax
    159f:	48 89 05 00 00 00 00 	mov    %rax,0x0(%rip)        # 15a6 <libkdump_init+0x3f>
    15a6:	48 8b 45 38          	mov    0x38(%rbp),%rax
    15aa:	48 89 05 00 00 00 00 	mov    %rax,0x0(%rip)        # 15b1 <libkdump_init+0x4a>
    15b1:	48 8b 45 40          	mov    0x40(%rbp),%rax
    15b5:	48 89 05 00 00 00 00 	mov    %rax,0x0(%rip)        # 15bc <libkdump_init+0x55>
    15bc:	ba 38 00 00 00       	mov    $0x38,%edx
    15c1:	48 8b 05 00 00 00 00 	mov    0x0(%rip),%rax        # 15c8 <libkdump_init+0x61>
    15c8:	48 89 c6             	mov    %rax,%rsi
    15cb:	48 8d 3d 00 00 00 00 	lea    0x0(%rip),%rdi        # 15d2 <libkdump_init+0x6b>
    15d2:	e8 00 00 00 00       	callq  15d7 <libkdump_init+0x70>
    15d7:	85 c0                	test   %eax,%eax
    15d9:	75 0a                	jne    15e5 <libkdump_init+0x7e>
    15db:	b8 00 00 00 00       	mov    $0x0,%eax
    15e0:	e8 c7 fd ff ff       	callq  13ac <auto_config>
    15e5:	b8 00 00 00 00       	mov    $0x0,%eax
    15ea:	e8 31 fe ff ff       	callq  1420 <check_config>
    15ef:	89 45 e0             	mov    %eax,-0x20(%rbp)
    15f2:	83 7d e0 00          	cmpl   $0x0,-0x20(%rbp)
    15f6:	74 17                	je     160f <libkdump_init+0xa8>
    15f8:	e8 00 00 00 00       	callq  15fd <libkdump_init+0x96>
    15fd:	48 89 c2             	mov    %rax,%rdx
    1600:	8b 45 e0             	mov    -0x20(%rbp),%eax
    1603:	89 02                	mov    %eax,(%rdx)
    1605:	b8 ff ff ff ff       	mov    $0xffffffff,%eax
    160a:	e9 63 03 00 00       	jmpq   1972 <libkdump_init+0x40b>
    160f:	bf 00 c0 12 00       	mov    $0x12c000,%edi
    1614:	e8 00 00 00 00       	callq  1619 <libkdump_init+0xb2>
    1619:	48 89 05 00 00 00 00 	mov    %rax,0x0(%rip)        # 1620 <libkdump_init+0xb9>
    1620:	48 8b 05 00 00 00 00 	mov    0x0(%rip),%rax        # 1627 <libkdump_init+0xc0>
    1627:	48 85 c0             	test   %rax,%rax
    162a:	75 15                	jne    1641 <libkdump_init+0xda>
    162c:	e8 00 00 00 00       	callq  1631 <libkdump_init+0xca>
    1631:	c7 00 0c 00 00 00    	movl   $0xc,(%rax)
    1637:	b8 ff ff ff ff       	mov    $0xffffffff,%eax
    163c:	e9 31 03 00 00       	jmpq   1972 <libkdump_init+0x40b>
    1641:	c7 45 d8 00 00 00 00 	movl   $0x0,-0x28(%rbp)
    1648:	eb 2e                	jmp    1678 <libkdump_init+0x111>
    164a:	48 8b 05 00 00 00 00 	mov    0x0(%rip),%rax        # 1651 <libkdump_init+0xea>
    1651:	8b 55 d8             	mov    -0x28(%rbp),%edx
    1654:	48 63 d2             	movslq %edx,%rdx
    1657:	48 c1 e2 03          	shl    $0x3,%rdx
    165b:	48 01 d0             	add    %rdx,%rax
    165e:	48 89 45 f0          	mov    %rax,-0x10(%rbp)
    1662:	48 8b 45 f0          	mov    -0x10(%rbp),%rax
    1666:	48 83 c0 08          	add    $0x8,%rax
    166a:	48 89 c2             	mov    %rax,%rdx
    166d:	48 8b 45 f0          	mov    -0x10(%rbp),%rax
    1671:	48 89 10             	mov    %rdx,(%rax)
    1674:	83 45 d8 01          	addl   $0x1,-0x28(%rbp)
    1678:	83 7d d8 7f          	cmpl   $0x7f,-0x28(%rbp)
    167c:	7e cc                	jle    164a <libkdump_init+0xe3>
    167e:	48 8b 05 00 00 00 00 	mov    0x0(%rip),%rax        # 1685 <libkdump_init+0x11e>
    1685:	48 25 00 f0 ff ff    	and    $0xfffffffffffff000,%rax
    168b:	48 05 00 20 00 00    	add    $0x2000,%rax
    1691:	48 89 05 00 00 00 00 	mov    %rax,0x0(%rip)        # 1698 <libkdump_init+0x131>
    1698:	48 8b 05 00 00 00 00 	mov    0x0(%rip),%rax        # 169f <libkdump_init+0x138>
    169f:	ba 00 20 12 00       	mov    $0x122000,%edx
    16a4:	be ab 00 00 00       	mov    $0xab,%esi
    16a9:	48 89 c7             	mov    %rax,%rdi
    16ac:	e8 00 00 00 00       	callq  16b1 <libkdump_init+0x14a>
    16b1:	c7 45 d8 00 00 00 00 	movl   $0x0,-0x28(%rbp)
    16b8:	eb 39                	jmp    16f3 <libkdump_init+0x18c>
    16ba:	48 8b 15 00 00 00 00 	mov    0x0(%rip),%rdx        # 16c1 <libkdump_init+0x15a>
    16c1:	8b 45 d8             	mov    -0x28(%rbp),%eax
    16c4:	c1 e0 06             	shl    $0x6,%eax
    16c7:	48 98                	cltq   
    16c9:	48 01 d0             	add    %rdx,%rax
    16cc:	48 89 45 f8          	mov    %rax,-0x8(%rbp)
    16d0:	48 8b 15 00 00 00 00 	mov    0x0(%rip),%rdx        # 16d7 <libkdump_init+0x170>
    16d7:	8b 45 d8             	mov    -0x28(%rbp),%eax
    16da:	83 c0 01             	add    $0x1,%eax
    16dd:	c1 e0 06             	shl    $0x6,%eax
    16e0:	48 98                	cltq   
    16e2:	48 01 d0             	add    %rdx,%rax
    16e5:	48 89 c2             	mov    %rax,%rdx
    16e8:	48 8b 45 f8          	mov    -0x8(%rbp),%rax
    16ec:	48 89 10             	mov    %rdx,(%rax)
    16ef:	83 45 d8 01          	addl   $0x1,-0x28(%rbp)
    16f3:	83 7d d8 3f          	cmpl   $0x3f,-0x28(%rbp)
    16f7:	7e c1                	jle    16ba <libkdump_init+0x153>
    16f9:	c7 45 d8 00 00 00 00 	movl   $0x0,-0x28(%rbp)
    1700:	eb 1e                	jmp    1720 <libkdump_init+0x1b9>
    1702:	48 8b 15 00 00 00 00 	mov    0x0(%rip),%rdx        # 1709 <libkdump_init+0x1a2>
    1709:	8b 45 d8             	mov    -0x28(%rbp),%eax
    170c:	c1 e0 0c             	shl    $0xc,%eax
    170f:	48 98                	cltq   
    1711:	48 01 d0             	add    %rdx,%rax
    1714:	48 89 c7             	mov    %rax,%rdi
    1717:	e8 9a f0 ff ff       	callq  7b6 <flush>
    171c:	83 45 d8 01          	addl   $0x1,-0x28(%rbp)
    1720:	81 7d d8 ff 00 00 00 	cmpl   $0xff,-0x28(%rbp)
    1727:	7e d9                	jle    1702 <libkdump_init+0x19b>
    1729:	bf 00 80 02 00       	mov    $0x28000,%edi
    172e:	e8 00 00 00 00       	callq  1733 <libkdump_init+0x1cc>
    1733:	48 89 05 00 00 00 00 	mov    %rax,0x0(%rip)        # 173a <libkdump_init+0x1d3>
    173a:	48 8b 05 00 00 00 00 	mov    0x0(%rip),%rax        # 1741 <libkdump_init+0x1da>
    1741:	48 85 c0             	test   %rax,%rax
    1744:	75 15                	jne    175b <libkdump_init+0x1f4>
    1746:	e8 00 00 00 00       	callq  174b <libkdump_init+0x1e4>
    174b:	c7 00 0c 00 00 00    	movl   $0xc,(%rax)
    1751:	b8 ff ff ff ff       	mov    $0xffffffff,%eax
    1756:	e9 17 02 00 00       	jmpq   1972 <libkdump_init+0x40b>
    175b:	48 8b 05 00 00 00 00 	mov    0x0(%rip),%rax        # 1762 <libkdump_init+0x1fb>
    1762:	48 25 00 f0 ff ff    	and    $0xfffffffffffff000,%rax
    1768:	48 05 00 10 00 00    	add    $0x1000,%rax
    176e:	48 89 05 00 00 00 00 	mov    %rax,0x0(%rip)        # 1775 <libkdump_init+0x20e>
    1775:	48 8b 05 00 00 00 00 	mov    0x0(%rip),%rax        # 177c <libkdump_init+0x215>
    177c:	ba 00 00 02 00       	mov    $0x20000,%edx
    1781:	be ab 00 00 00       	mov    $0xab,%esi
    1786:	48 89 c7             	mov    %rax,%rdi
    1789:	e8 00 00 00 00       	callq  178e <libkdump_init+0x227>
    178e:	8b 05 00 00 00 00    	mov    0x0(%rip),%eax        # 1794 <libkdump_init+0x22d>
    1794:	48 98                	cltq   
    1796:	48 c1 e0 03          	shl    $0x3,%rax
    179a:	48 89 c7             	mov    %rax,%rdi
    179d:	e8 00 00 00 00       	callq  17a2 <libkdump_init+0x23b>
    17a2:	48 89 05 00 00 00 00 	mov    %rax,0x0(%rip)        # 17a9 <libkdump_init+0x242>
    17a9:	8b 05 00 00 00 00    	mov    0x0(%rip),%eax        # 17af <libkdump_init+0x248>
    17af:	83 f8 02             	cmp    $0x2,%eax
    17b2:	74 17                	je     17cb <libkdump_init+0x264>
    17b4:	83 f8 03             	cmp    $0x3,%eax
    17b7:	74 1f                	je     17d8 <libkdump_init+0x271>
    17b9:	83 f8 01             	cmp    $0x1,%eax
    17bc:	75 27                	jne    17e5 <libkdump_init+0x27e>
    17be:	48 8d 05 68 f7 ff ff 	lea    -0x898(%rip),%rax        # f2d <syncthread>
    17c5:	48 89 45 e8          	mov    %rax,-0x18(%rbp)
    17c9:	eb 25                	jmp    17f0 <libkdump_init+0x289>
    17cb:	48 8d 05 6e f7 ff ff 	lea    -0x892(%rip),%rax        # f40 <yieldthread>
    17d2:	48 89 45 e8          	mov    %rax,-0x18(%rbp)
    17d6:	eb 18                	jmp    17f0 <libkdump_init+0x289>
    17d8:	48 8d 05 74 f7 ff ff 	lea    -0x88c(%rip),%rax        # f53 <fputhread>
    17df:	48 89 45 e8          	mov    %rax,-0x18(%rbp)
    17e3:	eb 0b                	jmp    17f0 <libkdump_init+0x289>
    17e5:	48 8d 05 36 f7 ff ff 	lea    -0x8ca(%rip),%rax        # f22 <nopthread>
    17ec:	48 89 45 e8          	mov    %rax,-0x18(%rbp)
    17f0:	c7 45 d8 00 00 00 00 	movl   $0x0,-0x28(%rbp)
    17f7:	e9 a1 00 00 00       	jmpq   189d <libkdump_init+0x336>
    17fc:	48 8b 45 e8          	mov    -0x18(%rbp),%rax
    1800:	48 8b 15 00 00 00 00 	mov    0x0(%rip),%rdx        # 1807 <libkdump_init+0x2a0>
    1807:	8b 4d d8             	mov    -0x28(%rbp),%ecx
    180a:	48 63 c9             	movslq %ecx,%rcx
    180d:	48 c1 e1 03          	shl    $0x3,%rcx
    1811:	48 8d 3c 0a          	lea    (%rdx,%rcx,1),%rdi
    1815:	b9 00 00 00 00       	mov    $0x0,%ecx
    181a:	48 89 c2             	mov    %rax,%rdx
    181d:	be 00 00 00 00       	mov    $0x0,%esi
    1822:	e8 00 00 00 00       	callq  1827 <libkdump_init+0x2c0>
    1827:	89 45 e4             	mov    %eax,-0x1c(%rbp)
    182a:	83 7d e4 00          	cmpl   $0x0,-0x1c(%rbp)
    182e:	74 69                	je     1899 <libkdump_init+0x332>
    1830:	c7 45 dc 00 00 00 00 	movl   $0x0,-0x24(%rbp)
    1837:	eb 23                	jmp    185c <libkdump_init+0x2f5>
    1839:	48 8b 05 00 00 00 00 	mov    0x0(%rip),%rax        # 1840 <libkdump_init+0x2d9>
    1840:	8b 55 dc             	mov    -0x24(%rbp),%edx
    1843:	48 63 d2             	movslq %edx,%rdx
    1846:	48 c1 e2 03          	shl    $0x3,%rdx
    184a:	48 01 d0             	add    %rdx,%rax
    184d:	48 8b 00             	mov    (%rax),%rax
    1850:	48 89 c7             	mov    %rax,%rdi
    1853:	e8 00 00 00 00       	callq  1858 <libkdump_init+0x2f1>
    1858:	83 45 dc 01          	addl   $0x1,-0x24(%rbp)
    185c:	8b 45 dc             	mov    -0x24(%rbp),%eax
    185f:	3b 45 d8             	cmp    -0x28(%rbp),%eax
    1862:	7c d5                	jl     1839 <libkdump_init+0x2d2>
    1864:	48 8b 05 00 00 00 00 	mov    0x0(%rip),%rax        # 186b <libkdump_init+0x304>
    186b:	48 89 c7             	mov    %rax,%rdi
    186e:	e8 00 00 00 00       	callq  1873 <libkdump_init+0x30c>
    1873:	48 8b 05 00 00 00 00 	mov    0x0(%rip),%rax        # 187a <libkdump_init+0x313>
    187a:	48 89 c7             	mov    %rax,%rdi
    187d:	e8 00 00 00 00       	callq  1882 <libkdump_init+0x31b>
    1882:	e8 00 00 00 00       	callq  1887 <libkdump_init+0x320>
    1887:	48 89 c2             	mov    %rax,%rdx
    188a:	8b 45 e4             	mov    -0x1c(%rbp),%eax
    188d:	89 02                	mov    %eax,(%rdx)
    188f:	b8 ff ff ff ff       	mov    $0xffffffff,%eax
    1894:	e9 d9 00 00 00       	jmpq   1972 <libkdump_init+0x40b>
    1899:	83 45 d8 01          	addl   $0x1,-0x28(%rbp)
    189d:	8b 05 00 00 00 00    	mov    0x0(%rip),%eax        # 18a3 <libkdump_init+0x33c>
    18a3:	3b 45 d8             	cmp    -0x28(%rbp),%eax
    18a6:	0f 8f 50 ff ff ff    	jg     17fc <libkdump_init+0x295>
    18ac:	8b 05 00 00 00 00    	mov    0x0(%rip),%eax        # 18b2 <libkdump_init+0x34b>
    18b2:	89 c2                	mov    %eax,%edx
    18b4:	48 8d 35 00 00 00 00 	lea    0x0(%rip),%rsi        # 18bb <libkdump_init+0x354>
    18bb:	bf 02 00 00 00       	mov    $0x2,%edi
    18c0:	b8 00 00 00 00       	mov    $0x0,%eax
    18c5:	e8 a6 eb ff ff       	callq  470 <debug>
    18ca:	8b 05 00 00 00 00    	mov    0x0(%rip),%eax        # 18d0 <libkdump_init+0x369>
    18d0:	85 c0                	test   %eax,%eax
    18d2:	75 54                	jne    1928 <libkdump_init+0x3c1>
    18d4:	48 8d 35 fa fb ff ff 	lea    -0x406(%rip),%rsi        # 14d5 <segfault_handler>
    18db:	bf 0b 00 00 00       	mov    $0xb,%edi
    18e0:	e8 00 00 00 00       	callq  18e5 <libkdump_init+0x37e>
    18e5:	48 83 f8 ff          	cmp    $0xffffffffffffffff,%rax
    18e9:	75 27                	jne    1912 <libkdump_init+0x3ab>
    18eb:	48 8d 35 00 00 00 00 	lea    0x0(%rip),%rsi        # 18f2 <libkdump_init+0x38b>
    18f2:	bf 00 00 00 00       	mov    $0x0,%edi
    18f7:	b8 00 00 00 00       	mov    $0x0,%eax
    18fc:	e8 6f eb ff ff       	callq  470 <debug>
    1901:	b8 00 00 00 00       	mov    $0x0,%eax
    1906:	e8 00 00 00 00       	callq  190b <libkdump_init+0x3a4>
    190b:	b8 ff ff ff ff       	mov    $0xffffffff,%eax
    1910:	eb 60                	jmp    1972 <libkdump_init+0x40b>
    1912:	48 8d 35 00 00 00 00 	lea    0x0(%rip),%rsi        # 1919 <libkdump_init+0x3b2>
    1919:	bf 02 00 00 00       	mov    $0x2,%edi
    191e:	b8 00 00 00 00       	mov    $0x0,%eax
    1923:	e8 48 eb ff ff       	callq  470 <debug>
    1928:	be 01 00 00 00       	mov    $0x1,%esi
    192d:	48 8d 3d 00 00 00 00 	lea    0x0(%rip),%rdi        # 1934 <libkdump_init+0x3cd>
    1934:	b8 00 00 00 00       	mov    $0x0,%eax
    1939:	e8 00 00 00 00       	callq  193e <libkdump_init+0x3d7>
    193e:	89 05 00 00 00 00    	mov    %eax,0x0(%rip)        # 1944 <libkdump_init+0x3dd>
    1944:	8b 05 00 00 00 00    	mov    0x0(%rip),%eax        # 194a <libkdump_init+0x3e3>
    194a:	85 c0                	test   %eax,%eax
    194c:	79 1f                	jns    196d <libkdump_init+0x406>
    194e:	48 8d 0d 00 00 00 00 	lea    0x0(%rip),%rcx        # 1955 <libkdump_init+0x3ee>
    1955:	ba 65 04 00 00       	mov    $0x465,%edx
    195a:	48 8d 35 00 00 00 00 	lea    0x0(%rip),%rsi        # 1961 <libkdump_init+0x3fa>
    1961:	48 8d 3d 00 00 00 00 	lea    0x0(%rip),%rdi        # 1968 <libkdump_init+0x401>
    1968:	e8 00 00 00 00       	callq  196d <libkdump_init+0x406>
    196d:	b8 00 00 00 00       	mov    $0x0,%eax
    1972:	c9                   	leaveq 
    1973:	c3                   	retq   

0000000000001974 <libkdump_cleanup>:
    1974:	55                   	push   %rbp
    1975:	48 89 e5             	mov    %rsp,%rbp
    1978:	48 83 ec 10          	sub    $0x10,%rsp
    197c:	8b 05 00 00 00 00    	mov    0x0(%rip),%eax        # 1982 <libkdump_cleanup+0xe>
    1982:	85 c0                	test   %eax,%eax
    1984:	75 0f                	jne    1995 <libkdump_cleanup+0x21>
    1986:	be 00 00 00 00       	mov    $0x0,%esi
    198b:	bf 0b 00 00 00       	mov    $0xb,%edi
    1990:	e8 00 00 00 00       	callq  1995 <libkdump_cleanup+0x21>
    1995:	c7 45 fc 00 00 00 00 	movl   $0x0,-0x4(%rbp)
    199c:	eb 23                	jmp    19c1 <libkdump_cleanup+0x4d>
    199e:	48 8b 05 00 00 00 00 	mov    0x0(%rip),%rax        # 19a5 <libkdump_cleanup+0x31>
    19a5:	8b 55 fc             	mov    -0x4(%rbp),%edx
    19a8:	48 63 d2             	movslq %edx,%rdx
    19ab:	48 c1 e2 03          	shl    $0x3,%rdx
    19af:	48 01 d0             	add    %rdx,%rax
    19b2:	48 8b 00             	mov    (%rax),%rax
    19b5:	48 89 c7             	mov    %rax,%rdi
    19b8:	e8 00 00 00 00       	callq  19bd <libkdump_cleanup+0x49>
    19bd:	83 45 fc 01          	addl   $0x1,-0x4(%rbp)
    19c1:	8b 05 00 00 00 00    	mov    0x0(%rip),%eax        # 19c7 <libkdump_cleanup+0x53>
    19c7:	3b 45 fc             	cmp    -0x4(%rbp),%eax
    19ca:	7f d2                	jg     199e <libkdump_cleanup+0x2a>
    19cc:	48 8b 05 00 00 00 00 	mov    0x0(%rip),%rax        # 19d3 <libkdump_cleanup+0x5f>
    19d3:	48 89 c7             	mov    %rax,%rdi
    19d6:	e8 00 00 00 00       	callq  19db <libkdump_cleanup+0x67>
    19db:	48 8b 05 00 00 00 00 	mov    0x0(%rip),%rax        # 19e2 <libkdump_cleanup+0x6e>
    19e2:	48 89 c7             	mov    %rax,%rdi
    19e5:	e8 00 00 00 00       	callq  19ea <libkdump_cleanup+0x76>
    19ea:	48 8d 35 00 00 00 00 	lea    0x0(%rip),%rsi        # 19f1 <libkdump_cleanup+0x7d>
    19f1:	bf 02 00 00 00       	mov    $0x2,%edi
    19f6:	b8 00 00 00 00       	mov    $0x0,%eax
    19fb:	e8 70 ea ff ff       	callq  470 <debug>
    1a00:	b8 00 00 00 00       	mov    $0x0,%eax
    1a05:	c9                   	leaveq 
    1a06:	c3                   	retq   

0000000000001a07 <libkdump_phys_to_virt>:
    1a07:	55                   	push   %rbp
    1a08:	48 89 e5             	mov    %rsp,%rbp
    1a0b:	48 83 ec 10          	sub    $0x10,%rsp
    1a0f:	48 89 7d f8          	mov    %rdi,-0x8(%rbp)
    1a13:	48 8b 15 00 00 00 00 	mov    0x0(%rip),%rdx        # 1a1a <libkdump_phys_to_virt+0x13>
    1a1a:	48 8b 45 f8          	mov    -0x8(%rbp),%rax
    1a1e:	48 01 c2             	add    %rax,%rdx
    1a21:	48 8b 05 00 00 00 00 	mov    0x0(%rip),%rax        # 1a28 <libkdump_phys_to_virt+0x21>
    1a28:	48 39 c2             	cmp    %rax,%rdx
    1a2b:	73 06                	jae    1a33 <libkdump_phys_to_virt+0x2c>
    1a2d:	48 8b 45 f8          	mov    -0x8(%rbp),%rax
    1a31:	eb 3d                	jmp    1a70 <libkdump_phys_to_virt+0x69>
    1a33:	48 b8 ff ff ff ff ff 	movabs $0x3fffffffffff,%rax
    1a3a:	3f 00 00 
    1a3d:	48 39 45 f8          	cmp    %rax,-0x8(%rbp)
    1a41:	76 1f                	jbe    1a62 <libkdump_phys_to_virt+0x5b>
    1a43:	48 8d 35 00 00 00 00 	lea    0x0(%rip),%rsi        # 1a4a <libkdump_phys_to_virt+0x43>
    1a4a:	bf 00 00 00 00       	mov    $0x0,%edi
    1a4f:	b8 00 00 00 00       	mov    $0x0,%eax
    1a54:	e8 17 ea ff ff       	callq  470 <debug>
    1a59:	48 c7 c0 ff ff ff ff 	mov    $0xffffffffffffffff,%rax
    1a60:	eb 0e                	jmp    1a70 <libkdump_phys_to_virt+0x69>
    1a62:	48 8b 15 00 00 00 00 	mov    0x0(%rip),%rdx        # 1a69 <libkdump_phys_to_virt+0x62>
    1a69:	48 8b 45 f8          	mov    -0x8(%rbp),%rax
    1a6d:	48 01 d0             	add    %rdx,%rax
    1a70:	c9                   	leaveq 
    1a71:	c3                   	retq   

0000000000001a72 <libkdump_enable_debug>:
    1a72:	55                   	push   %rbp
    1a73:	48 89 e5             	mov    %rsp,%rbp
    1a76:	89 7d fc             	mov    %edi,-0x4(%rbp)
    1a79:	8b 45 fc             	mov    -0x4(%rbp),%eax
    1a7c:	89 05 00 00 00 00    	mov    %eax,0x0(%rip)        # 1a82 <libkdump_enable_debug+0x10>
    1a82:	90                   	nop
    1a83:	5d                   	pop    %rbp
    1a84:	c3                   	retq   

0000000000001a85 <libkdump_read_tsx>:
    1a85:	55                   	push   %rbp
    1a86:	31 c0                	xor    %eax,%eax
    1a88:	48 89 e5             	mov    %rsp,%rbp
    1a8b:	5d                   	pop    %rbp
    1a8c:	c3                   	retq   

0000000000001a8d <libkdump_read_signal_handler>:
    1a8d:	55                   	push   %rbp
    1a8e:	48 89 e5             	mov    %rsp,%rbp
    1a91:	41 54                	push   %r12
    1a93:	53                   	push   %rbx
    1a94:	48 83 ec 10          	sub    $0x10,%rsp
    1a98:	8b 05 00 00 00 00    	mov    0x0(%rip),%eax        # 1a9e <libkdump_read_signal_handler+0x11>
    1a9e:	ff c0                	inc    %eax
    1aa0:	48 98                	cltq   
    1aa2:	48 89 45 e8          	mov    %rax,-0x18(%rbp)
    1aa6:	48 83 7d e8 00       	cmpq   $0x0,-0x18(%rbp)
    1aab:	0f 84 83 03 00 00    	je     1e34 <libkdump_read_signal_handler+0x3a7>
    1ab1:	48 8d 3d 00 00 00 00 	lea    0x0(%rip),%rdi        # 1ab8 <libkdump_read_signal_handler+0x2b>
    1ab8:	e8 00 00 00 00       	callq  1abd <libkdump_read_signal_handler+0x30>
    1abd:	85 c0                	test   %eax,%eax
    1abf:	0f 85 a0 02 00 00    	jne    1d65 <libkdump_read_signal_handler+0x2d8>
    1ac5:	48 8b 1d 00 00 00 00 	mov    0x0(%rip),%rbx        # 1acc <libkdump_read_signal_handler+0x3f>
    1acc:	48 8b 0d 00 00 00 00 	mov    0x0(%rip),%rcx        # 1ad3 <libkdump_read_signal_handler+0x46>
    1ad3:	48 29 d9             	sub    %rbx,%rcx
    1ad6:	48 83 eb 40          	sub    $0x40,%rbx
    1ada:	48 8b 3b             	mov    (%rbx),%rdi
    1add:	48 8b 0c 0f          	mov    (%rdi,%rcx,1),%rcx
    1ae1:	48 8b 0c 0f          	mov    (%rdi,%rcx,1),%rcx
    1ae5:	48 83 c1 01          	add    $0x1,%rcx
    1ae9:	48 83 e9 01          	sub    $0x1,%rcx
    1aed:	48 83 c1 01          	add    $0x1,%rcx
    1af1:	48 83 e9 01          	sub    $0x1,%rcx
    1af5:	48 83 c1 01          	add    $0x1,%rcx
    1af9:	48 83 e9 01          	sub    $0x1,%rcx
    1afd:	48 83 c1 01          	add    $0x1,%rcx
    1b01:	48 83 e9 01          	sub    $0x1,%rcx
    1b05:	48 83 c1 01          	add    $0x1,%rcx
    1b09:	48 83 e9 01          	sub    $0x1,%rcx
    1b0d:	48 83 c1 01          	add    $0x1,%rcx
    1b11:	48 83 e9 01          	sub    $0x1,%rcx
    1b15:	48 83 c1 01          	add    $0x1,%rcx
    1b19:	48 83 e9 01          	sub    $0x1,%rcx
    1b1d:	48 83 c1 01          	add    $0x1,%rcx
    1b21:	48 83 e9 01          	sub    $0x1,%rcx
    1b25:	48 83 c1 01          	add    $0x1,%rcx
    1b29:	48 83 e9 01          	sub    $0x1,%rcx
    1b2d:	48 83 c1 01          	add    $0x1,%rcx
    1b31:	48 83 e9 01          	sub    $0x1,%rcx
    1b35:	48 83 c1 01          	add    $0x1,%rcx
    1b39:	48 83 e9 01          	sub    $0x1,%rcx
    1b3d:	48 83 c1 01          	add    $0x1,%rcx
    1b41:	48 83 e9 01          	sub    $0x1,%rcx
    1b45:	48 83 c1 01          	add    $0x1,%rcx
    1b49:	48 83 e9 01          	sub    $0x1,%rcx
    1b4d:	48 83 c1 01          	add    $0x1,%rcx
    1b51:	48 83 e9 01          	sub    $0x1,%rcx
    1b55:	48 83 c1 01          	add    $0x1,%rcx
    1b59:	48 83 e9 01          	sub    $0x1,%rcx
    1b5d:	48 83 c1 01          	add    $0x1,%rcx
    1b61:	48 83 e9 01          	sub    $0x1,%rcx
    1b65:	48 83 c1 01          	add    $0x1,%rcx
    1b69:	48 83 e9 01          	sub    $0x1,%rcx
    1b6d:	48 83 c1 01          	add    $0x1,%rcx
    1b71:	48 83 e9 01          	sub    $0x1,%rcx
    1b75:	48 83 c1 01          	add    $0x1,%rcx
    1b79:	48 83 e9 01          	sub    $0x1,%rcx
    1b7d:	48 83 c1 01          	add    $0x1,%rcx
    1b81:	48 83 e9 01          	sub    $0x1,%rcx
    1b85:	48 83 c1 01          	add    $0x1,%rcx
    1b89:	48 83 e9 01          	sub    $0x1,%rcx
    1b8d:	48 83 c1 01          	add    $0x1,%rcx
    1b91:	48 83 e9 01          	sub    $0x1,%rcx
    1b95:	48 83 c1 01          	add    $0x1,%rcx
    1b99:	48 83 e9 01          	sub    $0x1,%rcx
    1b9d:	48 83 c1 01          	add    $0x1,%rcx
    1ba1:	48 83 e9 01          	sub    $0x1,%rcx
    1ba5:	48 83 c1 01          	add    $0x1,%rcx
    1ba9:	48 83 e9 01          	sub    $0x1,%rcx
    1bad:	48 83 c1 01          	add    $0x1,%rcx
    1bb1:	48 83 e9 01          	sub    $0x1,%rcx
    1bb5:	48 83 c1 01          	add    $0x1,%rcx
    1bb9:	48 83 e9 01          	sub    $0x1,%rcx
    1bbd:	48 83 c1 01          	add    $0x1,%rcx
    1bc1:	48 83 e9 01          	sub    $0x1,%rcx
    1bc5:	48 83 c1 01          	add    $0x1,%rcx
    1bc9:	48 83 e9 01          	sub    $0x1,%rcx
    1bcd:	48 83 c1 01          	add    $0x1,%rcx
    1bd1:	48 83 e9 01          	sub    $0x1,%rcx
    1bd5:	48 83 c1 01          	add    $0x1,%rcx
    1bd9:	48 83 e9 01          	sub    $0x1,%rcx
    1bdd:	48 83 c1 01          	add    $0x1,%rcx
    1be1:	48 83 e9 01          	sub    $0x1,%rcx
    1be5:	48 83 c1 01          	add    $0x1,%rcx
    1be9:	48 83 e9 01          	sub    $0x1,%rcx
    1bed:	48 83 c1 01          	add    $0x1,%rcx
    1bf1:	48 83 e9 01          	sub    $0x1,%rcx
    1bf5:	48 83 c1 01          	add    $0x1,%rcx
    1bf9:	48 83 e9 01          	sub    $0x1,%rcx
    1bfd:	48 83 c1 01          	add    $0x1,%rcx
    1c01:	48 83 e9 01          	sub    $0x1,%rcx
    1c05:	48 83 c1 01          	add    $0x1,%rcx
    1c09:	48 83 e9 01          	sub    $0x1,%rcx
    1c0d:	48 83 c1 01          	add    $0x1,%rcx
    1c11:	48 83 e9 01          	sub    $0x1,%rcx
    1c15:	48 83 c1 01          	add    $0x1,%rcx
    1c19:	48 83 e9 01          	sub    $0x1,%rcx
    1c1d:	48 83 c1 01          	add    $0x1,%rcx
    1c21:	48 83 e9 01          	sub    $0x1,%rcx
    1c25:	48 83 c1 01          	add    $0x1,%rcx
    1c29:	48 83 e9 01          	sub    $0x1,%rcx
    1c2d:	48 83 c1 01          	add    $0x1,%rcx
    1c31:	48 83 e9 01          	sub    $0x1,%rcx
    1c35:	48 83 c1 01          	add    $0x1,%rcx
    1c39:	48 83 e9 01          	sub    $0x1,%rcx
    1c3d:	48 83 c1 01          	add    $0x1,%rcx
    1c41:	48 83 e9 01          	sub    $0x1,%rcx
    1c45:	48 83 c1 01          	add    $0x1,%rcx
    1c49:	48 83 e9 01          	sub    $0x1,%rcx
    1c4d:	48 83 c1 01          	add    $0x1,%rcx
    1c51:	48 83 e9 01          	sub    $0x1,%rcx
    1c55:	48 83 c1 01          	add    $0x1,%rcx
    1c59:	48 83 e9 01          	sub    $0x1,%rcx
    1c5d:	48 83 c1 01          	add    $0x1,%rcx
    1c61:	48 83 e9 01          	sub    $0x1,%rcx
    1c65:	48 83 c1 01          	add    $0x1,%rcx
    1c69:	48 83 e9 01          	sub    $0x1,%rcx
    1c6d:	48 83 c1 01          	add    $0x1,%rcx
    1c71:	48 83 e9 01          	sub    $0x1,%rcx
    1c75:	48 83 c1 01          	add    $0x1,%rcx
    1c79:	48 83 e9 01          	sub    $0x1,%rcx
    1c7d:	48 83 c1 01          	add    $0x1,%rcx
    1c81:	48 83 e9 01          	sub    $0x1,%rcx
    1c85:	48 83 c1 01          	add    $0x1,%rcx
    1c89:	48 83 e9 01          	sub    $0x1,%rcx
    1c8d:	48 83 c1 01          	add    $0x1,%rcx
    1c91:	48 83 e9 01          	sub    $0x1,%rcx
    1c95:	48 83 c1 01          	add    $0x1,%rcx
    1c99:	48 83 e9 01          	sub    $0x1,%rcx
    1c9d:	48 83 c1 01          	add    $0x1,%rcx
    1ca1:	48 83 e9 01          	sub    $0x1,%rcx
    1ca5:	48 83 c1 01          	add    $0x1,%rcx
    1ca9:	48 83 e9 01          	sub    $0x1,%rcx
    1cad:	48 83 c1 01          	add    $0x1,%rcx
    1cb1:	48 83 e9 01          	sub    $0x1,%rcx
    1cb5:	48 83 c1 01          	add    $0x1,%rcx
    1cb9:	48 83 e9 01          	sub    $0x1,%rcx
    1cbd:	48 83 c1 01          	add    $0x1,%rcx
    1cc1:	48 83 e9 01          	sub    $0x1,%rcx
    1cc5:	48 83 c1 01          	add    $0x1,%rcx
    1cc9:	48 83 e9 01          	sub    $0x1,%rcx
    1ccd:	48 83 c1 01          	add    $0x1,%rcx
    1cd1:	48 83 e9 01          	sub    $0x1,%rcx
    1cd5:	48 83 c1 01          	add    $0x1,%rcx
    1cd9:	48 83 e9 01          	sub    $0x1,%rcx
    1cdd:	48 83 c1 01          	add    $0x1,%rcx
    1ce1:	48 83 e9 01          	sub    $0x1,%rcx
    1ce5:	48 83 c1 01          	add    $0x1,%rcx
    1ce9:	48 83 e9 01          	sub    $0x1,%rcx
    1ced:	48 83 c1 01          	add    $0x1,%rcx
    1cf1:	48 83 e9 01          	sub    $0x1,%rcx
    1cf5:	48 83 c1 01          	add    $0x1,%rcx
    1cf9:	48 83 e9 01          	sub    $0x1,%rcx
    1cfd:	48 83 c1 01          	add    $0x1,%rcx
    1d01:	48 83 e9 01          	sub    $0x1,%rcx
    1d05:	48 83 c1 01          	add    $0x1,%rcx
    1d09:	48 83 e9 01          	sub    $0x1,%rcx
    1d0d:	48 83 c1 01          	add    $0x1,%rcx
    1d11:	48 83 e9 01          	sub    $0x1,%rcx
    1d15:	48 83 c1 01          	add    $0x1,%rcx
    1d19:	48 83 e9 01          	sub    $0x1,%rcx
    1d1d:	48 83 c1 01          	add    $0x1,%rcx
    1d21:	48 83 e9 01          	sub    $0x1,%rcx
    1d25:	48 83 c1 01          	add    $0x1,%rcx
    1d29:	48 83 e9 01          	sub    $0x1,%rcx
    1d2d:	48 83 c1 01          	add    $0x1,%rcx
    1d31:	48 83 e9 01          	sub    $0x1,%rcx
    1d35:	48 83 c1 01          	add    $0x1,%rcx
    1d39:	48 83 e9 01          	sub    $0x1,%rcx
    1d3d:	48 83 c1 01          	add    $0x1,%rcx
    1d41:	48 83 e9 01          	sub    $0x1,%rcx
    1d45:	48 83 c1 01          	add    $0x1,%rcx
    1d49:	48 83 e9 01          	sub    $0x1,%rcx
    1d4d:	48 83 c1 01          	add    $0x1,%rcx
    1d51:	48 83 e9 01          	sub    $0x1,%rcx
    1d55:	48 83 c1 01          	add    $0x1,%rcx
    1d59:	48 83 e9 01          	sub    $0x1,%rcx
    1d5d:	48 83 c1 01          	add    $0x1,%rcx
    1d61:	48 83 e9 01          	sub    $0x1,%rcx
    1d65:	48 8b 1d 00 00 00 00 	mov    0x0(%rip),%rbx        # 1d6c <libkdump_read_signal_handler+0x2df>
    1d6c:	48 8b 05 00 00 00 00 	mov    0x0(%rip),%rax        # 1d73 <libkdump_read_signal_handler+0x2e6>
    1d73:	be a0 86 01 00       	mov    $0x186a0,%esi
    1d78:	4c 8b 25 00 00 00 00 	mov    0x0(%rip),%r12        # 1d7f <libkdump_read_signal_handler+0x2f2>
    1d7f:	48 8b 10             	mov    (%rax),%rdx
    1d82:	48 8b 40 08          	mov    0x8(%rax),%rax
    1d86:	48 01 43 08          	add    %rax,0x8(%rbx)
    1d8a:	41 8b 04 24          	mov    (%r12),%eax
    1d8e:	48 01 13             	add    %rdx,(%rbx)
    1d91:	ff c0                	inc    %eax
    1d93:	99                   	cltd   
    1d94:	41 89 04 24          	mov    %eax,(%r12)
    1d98:	f7 fe                	idiv   %esi
    1d9a:	85 d2                	test   %edx,%edx
    1d9c:	0f 85 89 00 00 00    	jne    1e2b <libkdump_read_signal_handler+0x39e>
    1da2:	48 8d 3d 00 00 00 00 	lea    0x0(%rip),%rdi        # 1da9 <libkdump_read_signal_handler+0x31c>
    1da9:	31 c0                	xor    %eax,%eax
    1dab:	e8 00 00 00 00       	callq  1db0 <libkdump_read_signal_handler+0x323>
    1db0:	f2 41 0f 2a 0c 24    	cvtsi2sdl (%r12),%xmm1
    1db6:	f2 48 0f 2a 03       	cvtsi2sdq (%rbx),%xmm0
    1dbb:	f2 0f 5e c1          	divsd  %xmm1,%xmm0
    1dbf:	48 8d 3d 00 00 00 00 	lea    0x0(%rip),%rdi        # 1dc6 <libkdump_read_signal_handler+0x339>
    1dc6:	b0 01                	mov    $0x1,%al
    1dc8:	e8 00 00 00 00       	callq  1dcd <libkdump_read_signal_handler+0x340>
    1dcd:	f2 41 0f 2a 0c 24    	cvtsi2sdl (%r12),%xmm1
    1dd3:	f2 48 0f 2a 43 08    	cvtsi2sdq 0x8(%rbx),%xmm0
    1dd9:	f2 0f 5e c1          	divsd  %xmm1,%xmm0
    1ddd:	48 8d 3d 00 00 00 00 	lea    0x0(%rip),%rdi        # 1de4 <libkdump_read_signal_handler+0x357>
    1de4:	b0 01                	mov    $0x1,%al
    1de6:	48 c7 03 00 00 00 00 	movq   $0x0,(%rbx)
    1ded:	e8 00 00 00 00       	callq  1df2 <libkdump_read_signal_handler+0x365>
    1df2:	48 8d 3d 00 00 00 00 	lea    0x0(%rip),%rdi        # 1df9 <libkdump_read_signal_handler+0x36c>
    1df9:	31 c0                	xor    %eax,%eax
    1dfb:	48 c7 43 08 00 00 00 	movq   $0x0,0x8(%rbx)
    1e02:	00 
    1e03:	e8 00 00 00 00       	callq  1e08 <libkdump_read_signal_handler+0x37b>
    1e08:	f2 41 0f 2a 0c 24    	cvtsi2sdl (%r12),%xmm1
    1e0e:	0f 57 c0             	xorps  %xmm0,%xmm0
    1e11:	48 8d 3d 00 00 00 00 	lea    0x0(%rip),%rdi        # 1e18 <libkdump_read_signal_handler+0x38b>
    1e18:	b0 01                	mov    $0x1,%al
    1e1a:	f2 0f 5e c1          	divsd  %xmm1,%xmm0
    1e1e:	e8 00 00 00 00       	callq  1e23 <libkdump_read_signal_handler+0x396>
    1e23:	41 c7 04 24 00 00 00 	movl   $0x0,(%r12)
    1e2a:	00 
    1e2b:	48 ff 4d e8          	decq   -0x18(%rbp)
    1e2f:	e9 72 fc ff ff       	jmpq   1aa6 <libkdump_read_signal_handler+0x19>
    1e34:	5a                   	pop    %rdx
    1e35:	31 c0                	xor    %eax,%eax
    1e37:	59                   	pop    %rcx
    1e38:	5b                   	pop    %rbx
    1e39:	41 5c                	pop    %r12
    1e3b:	5d                   	pop    %rbp
    1e3c:	c3                   	retq   

0000000000001e3d <libkdump_read>:
    1e3d:	55                   	push   %rbp
    1e3e:	48 89 e5             	mov    %rsp,%rbp
    1e41:	48 81 ec 30 01 00 00 	sub    $0x130,%rsp
    1e48:	48 89 bd d8 fe ff ff 	mov    %rdi,-0x128(%rbp)
    1e4f:	64 48 8b 04 25 28 00 	mov    %fs:0x28,%rax
    1e56:	00 00 
    1e58:	48 89 45 f8          	mov    %rax,-0x8(%rbp)
    1e5c:	31 c0                	xor    %eax,%eax
    1e5e:	48 8b 85 d8 fe ff ff 	mov    -0x128(%rbp),%rax
    1e65:	48 89 05 00 00 00 00 	mov    %rax,0x0(%rip)        # 1e6c <libkdump_read+0x2f>
    1e6c:	c7 85 e0 fe ff ff 00 	movl   $0x0,-0x120(%rbp)
    1e73:	00 00 00 
    1e76:	eb 17                	jmp    1e8f <libkdump_read+0x52>
    1e78:	8b 85 e0 fe ff ff    	mov    -0x120(%rbp),%eax
    1e7e:	48 98                	cltq   
    1e80:	c6 84 05 f0 fe ff ff 	movb   $0x0,-0x110(%rbp,%rax,1)
    1e87:	00 
    1e88:	83 85 e0 fe ff ff 01 	addl   $0x1,-0x120(%rbp)
    1e8f:	81 bd e0 fe ff ff ff 	cmpl   $0xff,-0x120(%rbp)
    1e96:	00 00 00 
    1e99:	7e dd                	jle    1e78 <libkdump_read+0x3b>
    1e9b:	c7 85 e0 fe ff ff 00 	movl   $0x0,-0x120(%rbp)
    1ea2:	00 00 00 
    1ea5:	eb 58                	jmp    1eff <libkdump_read+0xc2>
    1ea7:	8b 05 00 00 00 00    	mov    0x0(%rip),%eax        # 1ead <libkdump_read+0x70>
    1ead:	83 f8 01             	cmp    $0x1,%eax
    1eb0:	75 12                	jne    1ec4 <libkdump_read+0x87>
    1eb2:	b8 00 00 00 00       	mov    $0x0,%eax
    1eb7:	e8 00 00 00 00       	callq  1ebc <libkdump_read+0x7f>
    1ebc:	89 85 e4 fe ff ff    	mov    %eax,-0x11c(%rbp)
    1ec2:	eb 10                	jmp    1ed4 <libkdump_read+0x97>
    1ec4:	b8 00 00 00 00       	mov    $0x0,%eax
    1ec9:	e8 00 00 00 00       	callq  1ece <libkdump_read+0x91>
    1ece:	89 85 e4 fe ff ff    	mov    %eax,-0x11c(%rbp)
    1ed4:	8b 85 e4 fe ff ff    	mov    -0x11c(%rbp),%eax
    1eda:	48 98                	cltq   
    1edc:	0f b6 84 05 f0 fe ff 	movzbl -0x110(%rbp,%rax,1),%eax
    1ee3:	ff 
    1ee4:	83 c0 01             	add    $0x1,%eax
    1ee7:	89 c2                	mov    %eax,%edx
    1ee9:	8b 85 e4 fe ff ff    	mov    -0x11c(%rbp),%eax
    1eef:	48 98                	cltq   
    1ef1:	88 94 05 f0 fe ff ff 	mov    %dl,-0x110(%rbp,%rax,1)
    1ef8:	83 85 e0 fe ff ff 01 	addl   $0x1,-0x120(%rbp)
    1eff:	8b 05 00 00 00 00    	mov    0x0(%rip),%eax        # 1f05 <libkdump_read+0xc8>
    1f05:	3b 85 e0 fe ff ff    	cmp    -0x120(%rbp),%eax
    1f0b:	7f 9a                	jg     1ea7 <libkdump_read+0x6a>
    1f0d:	c7 85 e8 fe ff ff 00 	movl   $0x0,-0x118(%rbp)
    1f14:	00 00 00 
    1f17:	c7 85 ec fe ff ff 00 	movl   $0x0,-0x114(%rbp)
    1f1e:	00 00 00 
    1f21:	8b 05 00 00 00 00    	mov    0x0(%rip),%eax        # 1f27 <libkdump_read+0xea>
    1f27:	85 c0                	test   %eax,%eax
    1f29:	74 6a                	je     1f95 <libkdump_read+0x158>
    1f2b:	c7 85 e0 fe ff ff 00 	movl   $0x0,-0x120(%rbp)
    1f32:	00 00 00 
    1f35:	eb 51                	jmp    1f88 <libkdump_read+0x14b>
    1f37:	8b 85 e0 fe ff ff    	mov    -0x120(%rbp),%eax
    1f3d:	48 98                	cltq   
    1f3f:	0f b6 84 05 f0 fe ff 	movzbl -0x110(%rbp,%rax,1),%eax
    1f46:	ff 
    1f47:	84 c0                	test   %al,%al
    1f49:	74 35                	je     1f80 <libkdump_read+0x143>
    1f4b:	8b 85 e0 fe ff ff    	mov    -0x120(%rbp),%eax
    1f51:	48 98                	cltq   
    1f53:	0f b6 84 05 f0 fe ff 	movzbl -0x110(%rbp,%rax,1),%eax
    1f5a:	ff 
    1f5b:	0f be d0             	movsbl %al,%edx
    1f5e:	8b 85 e0 fe ff ff    	mov    -0x120(%rbp),%eax
    1f64:	89 d1                	mov    %edx,%ecx
    1f66:	89 c2                	mov    %eax,%edx
    1f68:	48 8d 35 00 00 00 00 	lea    0x0(%rip),%rsi        # 1f6f <libkdump_read+0x132>
    1f6f:	bf 01 00 00 00       	mov    $0x1,%edi
    1f74:	b8 00 00 00 00       	mov    $0x0,%eax
    1f79:	e8 f2 e4 ff ff       	callq  470 <debug>
    1f7e:	eb 01                	jmp    1f81 <libkdump_read+0x144>
    1f80:	90                   	nop
    1f81:	83 85 e0 fe ff ff 01 	addl   $0x1,-0x120(%rbp)
    1f88:	8b 85 e0 fe ff ff    	mov    -0x120(%rbp),%eax
    1f8e:	3d ff 00 00 00       	cmp    $0xff,%eax
    1f93:	76 a2                	jbe    1f37 <libkdump_read+0xfa>
    1f95:	c7 85 e0 fe ff ff 01 	movl   $0x1,-0x120(%rbp)
    1f9c:	00 00 00 
    1f9f:	eb 64                	jmp    2005 <libkdump_read+0x1c8>
    1fa1:	8b 85 e0 fe ff ff    	mov    -0x120(%rbp),%eax
    1fa7:	48 98                	cltq   
    1fa9:	0f b6 84 05 f0 fe ff 	movzbl -0x110(%rbp,%rax,1),%eax
    1fb0:	ff 
    1fb1:	0f be c0             	movsbl %al,%eax
    1fb4:	3b 85 e8 fe ff ff    	cmp    -0x118(%rbp),%eax
    1fba:	7e 42                	jle    1ffe <libkdump_read+0x1c1>
    1fbc:	8b 85 e0 fe ff ff    	mov    -0x120(%rbp),%eax
    1fc2:	48 98                	cltq   
    1fc4:	0f b6 84 05 f0 fe ff 	movzbl -0x110(%rbp,%rax,1),%eax
    1fcb:	ff 
    1fcc:	0f be d0             	movsbl %al,%edx
    1fcf:	8b 05 00 00 00 00    	mov    0x0(%rip),%eax        # 1fd5 <libkdump_read+0x198>
    1fd5:	39 c2                	cmp    %eax,%edx
    1fd7:	7c 25                	jl     1ffe <libkdump_read+0x1c1>
    1fd9:	8b 85 e0 fe ff ff    	mov    -0x120(%rbp),%eax
    1fdf:	48 98                	cltq   
    1fe1:	0f b6 84 05 f0 fe ff 	movzbl -0x110(%rbp,%rax,1),%eax
    1fe8:	ff 
    1fe9:	0f be c0             	movsbl %al,%eax
    1fec:	89 85 e8 fe ff ff    	mov    %eax,-0x118(%rbp)
    1ff2:	8b 85 e0 fe ff ff    	mov    -0x120(%rbp),%eax
    1ff8:	89 85 ec fe ff ff    	mov    %eax,-0x114(%rbp)
    1ffe:	83 85 e0 fe ff ff 01 	addl   $0x1,-0x120(%rbp)
    2005:	81 bd e0 fe ff ff ff 	cmpl   $0xff,-0x120(%rbp)
    200c:	00 00 00 
    200f:	7e 90                	jle    1fa1 <libkdump_read+0x164>
    2011:	8b 85 ec fe ff ff    	mov    -0x114(%rbp),%eax
    2017:	48 8b 4d f8          	mov    -0x8(%rbp),%rcx
    201b:	64 48 33 0c 25 28 00 	xor    %fs:0x28,%rcx
    2022:	00 00 
    2024:	74 05                	je     202b <libkdump_read+0x1ee>
    2026:	e8 00 00 00 00       	callq  202b <libkdump_read+0x1ee>
    202b:	c9                   	leaveq 
    202c:	c3                   	retq   

000000000000202d <libkdump_write_prepare>:
    202d:	85 f6                	test   %esi,%esi
    202f:	74 11                	je     2042 <libkdump_write_prepare+0x15>
    2031:	48 8b 0d 00 00 00 00 	mov    0x0(%rip),%rcx        # 2038 <libkdump_write_prepare+0xb>
    2038:	48 c7 01 00 30 02 00 	movq   $0x23000,(%rcx)
    203f:	0f ae f0             	mfence 
    2042:	83 c8 ff             	or     $0xffffffff,%eax
    2045:	85 ff                	test   %edi,%edi
    2047:	74 13                	je     205c <libkdump_write_prepare+0x2f>
    2049:	55                   	push   %rbp
    204a:	48 8b 3d 00 00 00 00 	mov    0x0(%rip),%rdi        # 2051 <libkdump_write_prepare+0x24>
    2051:	48 89 e5             	mov    %rsp,%rbp
    2054:	e8 00 00 00 00       	callq  2059 <libkdump_write_prepare+0x2c>
    2059:	5d                   	pop    %rbp
    205a:	31 c0                	xor    %eax,%eax
    205c:	c3                   	retq   

000000000000205d <libkdump_xmm_prepare>:
    205d:	48 8b 05 00 00 00 00 	mov    0x0(%rip),%rax        # 2064 <libkdump_xmm_prepare+0x7>
    2064:	55                   	push   %rbp
    2065:	85 f6                	test   %esi,%esi
    2067:	48 89 e5             	mov    %rsp,%rbp
    206a:	48 8d 50 01          	lea    0x1(%rax),%rdx
    206e:	48 c7 00 00 00 00 00 	movq   $0x0,(%rax)
    2075:	48 c7 40 01 00 20 04 	movq   $0x42000,0x1(%rax)
    207c:	00 
    207d:	48 89 15 00 00 00 00 	mov    %rdx,0x0(%rip)        # 2084 <libkdump_xmm_prepare+0x27>
    2084:	74 09                	je     208f <libkdump_xmm_prepare+0x32>
    2086:	48 89 15 00 00 00 00 	mov    %rdx,0x0(%rip)        # 208d <libkdump_xmm_prepare+0x30>
    208d:	eb 0a                	jmp    2099 <libkdump_xmm_prepare+0x3c>
    208f:	48 ff c7             	inc    %rdi
    2092:	48 89 3d 00 00 00 00 	mov    %rdi,0x0(%rip)        # 2099 <libkdump_xmm_prepare+0x3c>
    2099:	5d                   	pop    %rbp
    209a:	c3                   	retq   

000000000000209b <libkdump_xmm_load_prepare>:
    209b:	55                   	push   %rbp
    209c:	c1 e2 0c             	shl    $0xc,%edx
    209f:	89 d1                	mov    %edx,%ecx
    20a1:	48 89 e5             	mov    %rsp,%rbp
    20a4:	66 48 0f 6e c1       	movq   %rcx,%xmm0
    20a9:	44 8d 04 36          	lea    (%rsi,%rsi,1),%r8d
    20ad:	48 8d 15 00 00 00 00 	lea    0x0(%rip),%rdx        # 20b4 <libkdump_xmm_load_prepare+0x19>
    20b4:	b9 0d 00 00 00       	mov    $0xd,%ecx
    20b9:	be 28 00 00 00       	mov    $0x28,%esi
    20be:	31 c0                	xor    %eax,%eax
    20c0:	41 09 f8             	or     %edi,%r8d
    20c3:	48 8d 3d 00 00 00 00 	lea    0x0(%rip),%rdi        # 20ca <libkdump_xmm_load_prepare+0x2f>
    20ca:	4d 63 c0             	movslq %r8d,%r8
    20cd:	e8 00 00 00 00       	callq  20d2 <libkdump_xmm_load_prepare+0x37>
    20d2:	48 8d 35 00 00 00 00 	lea    0x0(%rip),%rsi        # 20d9 <libkdump_xmm_load_prepare+0x3e>
    20d9:	31 c0                	xor    %eax,%eax
    20db:	48 83 c9 ff          	or     $0xffffffffffffffff,%rcx
    20df:	48 89 f7             	mov    %rsi,%rdi
    20e2:	f2 ae                	repnz scas %es:(%rdi),%al
    20e4:	8b 3d 00 00 00 00    	mov    0x0(%rip),%edi        # 20ea <libkdump_xmm_load_prepare+0x4f>
    20ea:	48 f7 d1             	not    %rcx
    20ed:	48 8d 51 ff          	lea    -0x1(%rcx),%rdx
    20f1:	e8 00 00 00 00       	callq  20f6 <libkdump_xmm_load_prepare+0x5b>
    20f6:	5d                   	pop    %rbp
    20f7:	c3                   	retq   

00000000000020f8 <libkdump_pk_prepare>:
    20f8:	55                   	push   %rbp
    20f9:	be 01 00 00 00       	mov    $0x1,%esi
    20fe:	48 89 e5             	mov    %rsp,%rbp
    2101:	41 55                	push   %r13
    2103:	41 54                	push   %r12
    2105:	53                   	push   %rbx
    2106:	52                   	push   %rdx
    2107:	49 89 fd             	mov    %rdi,%r13
    210a:	4c 8b 25 00 00 00 00 	mov    0x0(%rip),%r12        # 2111 <libkdump_pk_prepare+0x19>
    2111:	31 d2                	xor    %edx,%edx
    2113:	bf 01 00 00 00       	mov    $0x1,%edi
    2118:	41 c7 04 24 01 00 00 	movl   $0x1,(%r12)
    211f:	00 
    2120:	e8 00 00 00 00       	callq  2125 <libkdump_pk_prepare+0x2d>
    2125:	48 8b 1d 00 00 00 00 	mov    0x0(%rip),%rbx        # 212c <libkdump_pk_prepare+0x34>
    212c:	85 c0                	test   %eax,%eax
    212e:	89 03                	mov    %eax,(%rbx)
    2130:	74 16                	je     2148 <libkdump_pk_prepare+0x50>
    2132:	48 8d 3d 00 00 00 00 	lea    0x0(%rip),%rdi        # 2139 <libkdump_pk_prepare+0x41>
    2139:	e8 00 00 00 00       	callq  213e <libkdump_pk_prepare+0x46>
    213e:	bf 01 00 00 00       	mov    $0x1,%edi
    2143:	e8 00 00 00 00       	callq  2148 <libkdump_pk_prepare+0x50>
    2148:	41 8b 34 24          	mov    (%r12),%esi
    214c:	4c 89 ef             	mov    %r13,%rdi
    214f:	e8 00 00 00 00       	callq  2154 <libkdump_pk_prepare+0x5c>
    2154:	89 03                	mov    %eax,(%rbx)
    2156:	ff c0                	inc    %eax
    2158:	75 16                	jne    2170 <libkdump_pk_prepare+0x78>
    215a:	48 8d 3d 00 00 00 00 	lea    0x0(%rip),%rdi        # 2161 <libkdump_pk_prepare+0x69>
    2161:	e8 00 00 00 00       	callq  2166 <libkdump_pk_prepare+0x6e>
    2166:	bf 01 00 00 00       	mov    $0x1,%edi
    216b:	e8 00 00 00 00       	callq  2170 <libkdump_pk_prepare+0x78>
    2170:	58                   	pop    %rax
    2171:	5b                   	pop    %rbx
    2172:	41 5c                	pop    %r12
    2174:	41 5d                	pop    %r13
    2176:	5d                   	pop    %rbp
    2177:	c3                   	retq   

0000000000002178 <libkdump_pk_restore>:
    2178:	55                   	push   %rbp
    2179:	48 89 e5             	mov    %rsp,%rbp
    217c:	e8 00 00 00 00       	callq  2181 <libkdump_pk_restore+0x9>
    2181:	48 8b 15 00 00 00 00 	mov    0x0(%rip),%rdx        # 2188 <libkdump_pk_restore+0x10>
    2188:	89 02                	mov    %eax,(%rdx)
    218a:	ff c0                	inc    %eax
    218c:	75 16                	jne    21a4 <libkdump_pk_restore+0x2c>
    218e:	48 8d 3d 00 00 00 00 	lea    0x0(%rip),%rdi        # 2195 <libkdump_pk_restore+0x1d>
    2195:	e8 00 00 00 00       	callq  219a <libkdump_pk_restore+0x22>
    219a:	bf 01 00 00 00       	mov    $0x1,%edi
    219f:	e8 00 00 00 00       	callq  21a4 <libkdump_pk_restore+0x2c>
    21a4:	5d                   	pop    %rbp
    21a5:	c3                   	retq   

00000000000021a6 <libkdump_get_data>:
    21a6:	55                   	push   %rbp
    21a7:	48 89 e5             	mov    %rsp,%rbp
    21aa:	48 8b 05 00 00 00 00 	mov    0x0(%rip),%rax        # 21b1 <libkdump_get_data+0xb>
    21b1:	5d                   	pop    %rbp
    21b2:	c3                   	retq   

00000000000021b3 <libkdump_prefetch_read_prepare>:
    21b3:	55                   	push   %rbp
    21b4:	48 89 e5             	mov    %rsp,%rbp
    21b7:	48 89 7d e8          	mov    %rdi,-0x18(%rbp)
    21bb:	48 8b 05 00 00 00 00 	mov    0x0(%rip),%rax        # 21c2 <libkdump_prefetch_read_prepare+0xf>
    21c2:	48 05 c0 1f 00 00    	add    $0x1fc0,%rax
    21c8:	48 89 45 f8          	mov    %rax,-0x8(%rbp)
    21cc:	48 8b 15 00 00 00 00 	mov    0x0(%rip),%rdx        # 21d3 <libkdump_prefetch_read_prepare+0x20>
    21d3:	48 8b 45 f8          	mov    -0x8(%rbp),%rax
    21d7:	48 89 10             	mov    %rdx,(%rax)
    21da:	48 8b 05 00 00 00 00 	mov    0x0(%rip),%rax        # 21e1 <libkdump_prefetch_read_prepare+0x2e>
    21e1:	48 83 e8 40          	sub    $0x40,%rax
    21e5:	48 89 45 f8          	mov    %rax,-0x8(%rbp)
    21e9:	48 8b 05 00 00 00 00 	mov    0x0(%rip),%rax        # 21f0 <libkdump_prefetch_read_prepare+0x3d>
    21f0:	48 89 c2             	mov    %rax,%rdx
    21f3:	48 8b 45 f8          	mov    -0x8(%rbp),%rax
    21f7:	48 89 10             	mov    %rdx,(%rax)
    21fa:	90                   	nop
    21fb:	5d                   	pop    %rbp
    21fc:	c3                   	retq   

00000000000021fd <libkdump_meltdown_smap>:
    21fd:	55                   	push   %rbp
    21fe:	48 89 e5             	mov    %rsp,%rbp
    2201:	48 83 ec 20          	sub    $0x20,%rsp
    2205:	48 89 7d e8          	mov    %rdi,-0x18(%rbp)
    2209:	89 75 e4             	mov    %esi,-0x1c(%rbp)
    220c:	89 55 e0             	mov    %edx,-0x20(%rbp)
    220f:	48 c7 45 f8 01 00 00 	movq   $0x1,-0x8(%rbp)
    2216:	00 
    2217:	8b 45 e4             	mov    -0x1c(%rbp),%eax
    221a:	48 98                	cltq   
    221c:	48 01 c0             	add    %rax,%rax
    221f:	48 09 45 f8          	or     %rax,-0x8(%rbp)
    2223:	8b 45 e0             	mov    -0x20(%rbp),%eax
    2226:	48 98                	cltq   
    2228:	48 c1 e0 03          	shl    $0x3,%rax
    222c:	48 09 45 f8          	or     %rax,-0x8(%rbp)
    2230:	48 8b 05 00 00 00 00 	mov    0x0(%rip),%rax        # 2237 <libkdump_meltdown_smap+0x3a>
    2237:	49 89 c0             	mov    %rax,%r8
    223a:	b9 04 00 00 00       	mov    $0x4,%ecx
    223f:	48 8d 15 00 00 00 00 	lea    0x0(%rip),%rdx        # 2246 <libkdump_meltdown_smap+0x49>
    2246:	be 28 00 00 00       	mov    $0x28,%esi
    224b:	48 8d 3d 00 00 00 00 	lea    0x0(%rip),%rdi        # 2252 <libkdump_meltdown_smap+0x55>
    2252:	b8 00 00 00 00       	mov    $0x0,%eax
    2257:	e8 00 00 00 00       	callq  225c <libkdump_meltdown_smap+0x5f>
    225c:	48 8d 3d 00 00 00 00 	lea    0x0(%rip),%rdi        # 2263 <libkdump_meltdown_smap+0x66>
    2263:	e8 00 00 00 00       	callq  2268 <libkdump_meltdown_smap+0x6b>
    2268:	48 89 c2             	mov    %rax,%rdx
    226b:	8b 05 00 00 00 00    	mov    0x0(%rip),%eax        # 2271 <libkdump_meltdown_smap+0x74>
    2271:	48 8d 35 00 00 00 00 	lea    0x0(%rip),%rsi        # 2278 <libkdump_meltdown_smap+0x7b>
    2278:	89 c7                	mov    %eax,%edi
    227a:	e8 00 00 00 00       	callq  227f <libkdump_meltdown_smap+0x82>
    227f:	48 8b 45 f8          	mov    -0x8(%rbp),%rax
    2283:	49 89 c0             	mov    %rax,%r8
    2286:	b9 05 00 00 00       	mov    $0x5,%ecx
    228b:	48 8d 15 00 00 00 00 	lea    0x0(%rip),%rdx        # 2292 <libkdump_meltdown_smap+0x95>
    2292:	be 28 00 00 00       	mov    $0x28,%esi
    2297:	48 8d 3d 00 00 00 00 	lea    0x0(%rip),%rdi        # 229e <libkdump_meltdown_smap+0xa1>
    229e:	b8 00 00 00 00       	mov    $0x0,%eax
    22a3:	e8 00 00 00 00       	callq  22a8 <libkdump_meltdown_smap+0xab>
    22a8:	48 8d 3d 00 00 00 00 	lea    0x0(%rip),%rdi        # 22af <libkdump_meltdown_smap+0xb2>
    22af:	e8 00 00 00 00       	callq  22b4 <libkdump_meltdown_smap+0xb7>
    22b4:	48 89 c2             	mov    %rax,%rdx
    22b7:	8b 05 00 00 00 00    	mov    0x0(%rip),%eax        # 22bd <libkdump_meltdown_smap+0xc0>
    22bd:	48 8d 35 00 00 00 00 	lea    0x0(%rip),%rsi        # 22c4 <libkdump_meltdown_smap+0xc7>
    22c4:	89 c7                	mov    %eax,%edi
    22c6:	e8 00 00 00 00       	callq  22cb <libkdump_meltdown_smap+0xce>
    22cb:	48 8b 45 e8          	mov    -0x18(%rbp),%rax
    22cf:	49 89 c0             	mov    %rax,%r8
    22d2:	b9 0f 00 00 00       	mov    $0xf,%ecx
    22d7:	48 8d 15 00 00 00 00 	lea    0x0(%rip),%rdx        # 22de <libkdump_meltdown_smap+0xe1>
    22de:	be 28 00 00 00       	mov    $0x28,%esi
    22e3:	48 8d 3d 00 00 00 00 	lea    0x0(%rip),%rdi        # 22ea <libkdump_meltdown_smap+0xed>
    22ea:	b8 00 00 00 00       	mov    $0x0,%eax
    22ef:	e8 00 00 00 00       	callq  22f4 <libkdump_meltdown_smap+0xf7>
    22f4:	48 8d 3d 00 00 00 00 	lea    0x0(%rip),%rdi        # 22fb <libkdump_meltdown_smap+0xfe>
    22fb:	e8 00 00 00 00       	callq  2300 <libkdump_meltdown_smap+0x103>
    2300:	48 89 c2             	mov    %rax,%rdx
    2303:	8b 05 00 00 00 00    	mov    0x0(%rip),%eax        # 2309 <libkdump_meltdown_smap+0x10c>
    2309:	48 8d 35 00 00 00 00 	lea    0x0(%rip),%rsi        # 2310 <libkdump_meltdown_smap+0x113>
    2310:	89 c7                	mov    %eax,%edi
    2312:	e8 00 00 00 00       	callq  2317 <libkdump_meltdown_smap+0x11a>
    2317:	c9                   	leaveq 
    2318:	c3                   	retq   

0000000000002319 <libkdump_meltdown_pk_kernel>:
    2319:	55                   	push   %rbp
    231a:	48 89 e5             	mov    %rsp,%rbp
    231d:	48 83 ec 20          	sub    $0x20,%rsp
    2321:	48 89 7d e8          	mov    %rdi,-0x18(%rbp)
    2325:	89 75 e4             	mov    %esi,-0x1c(%rbp)
    2328:	89 55 e0             	mov    %edx,-0x20(%rbp)
    232b:	48 c7 45 f8 00 00 00 	movq   $0x0,-0x8(%rbp)
    2332:	00 
    2333:	8b 45 e4             	mov    -0x1c(%rbp),%eax
    2336:	48 98                	cltq   
    2338:	48 01 c0             	add    %rax,%rax
    233b:	48 09 45 f8          	or     %rax,-0x8(%rbp)
    233f:	8b 45 e0             	mov    -0x20(%rbp),%eax
    2342:	48 98                	cltq   
    2344:	48 c1 e0 03          	shl    $0x3,%rax
    2348:	48 09 45 f8          	or     %rax,-0x8(%rbp)
    234c:	48 8b 05 00 00 00 00 	mov    0x0(%rip),%rax        # 2353 <libkdump_meltdown_pk_kernel+0x3a>
    2353:	49 89 c0             	mov    %rax,%r8
    2356:	b9 04 00 00 00       	mov    $0x4,%ecx
    235b:	48 8d 15 00 00 00 00 	lea    0x0(%rip),%rdx        # 2362 <libkdump_meltdown_pk_kernel+0x49>
    2362:	be 28 00 00 00       	mov    $0x28,%esi
    2367:	48 8d 3d 00 00 00 00 	lea    0x0(%rip),%rdi        # 236e <libkdump_meltdown_pk_kernel+0x55>
    236e:	b8 00 00 00 00       	mov    $0x0,%eax
    2373:	e8 00 00 00 00       	callq  2378 <libkdump_meltdown_pk_kernel+0x5f>
    2378:	48 8d 3d 00 00 00 00 	lea    0x0(%rip),%rdi        # 237f <libkdump_meltdown_pk_kernel+0x66>
    237f:	e8 00 00 00 00       	callq  2384 <libkdump_meltdown_pk_kernel+0x6b>
    2384:	48 89 c2             	mov    %rax,%rdx
    2387:	8b 05 00 00 00 00    	mov    0x0(%rip),%eax        # 238d <libkdump_meltdown_pk_kernel+0x74>
    238d:	48 8d 35 00 00 00 00 	lea    0x0(%rip),%rsi        # 2394 <libkdump_meltdown_pk_kernel+0x7b>
    2394:	89 c7                	mov    %eax,%edi
    2396:	e8 00 00 00 00       	callq  239b <libkdump_meltdown_pk_kernel+0x82>
    239b:	48 8b 45 f8          	mov    -0x8(%rbp),%rax
    239f:	49 89 c0             	mov    %rax,%r8
    23a2:	b9 05 00 00 00       	mov    $0x5,%ecx
    23a7:	48 8d 15 00 00 00 00 	lea    0x0(%rip),%rdx        # 23ae <libkdump_meltdown_pk_kernel+0x95>
    23ae:	be 28 00 00 00       	mov    $0x28,%esi
    23b3:	48 8d 3d 00 00 00 00 	lea    0x0(%rip),%rdi        # 23ba <libkdump_meltdown_pk_kernel+0xa1>
    23ba:	b8 00 00 00 00       	mov    $0x0,%eax
    23bf:	e8 00 00 00 00       	callq  23c4 <libkdump_meltdown_pk_kernel+0xab>
    23c4:	48 8d 3d 00 00 00 00 	lea    0x0(%rip),%rdi        # 23cb <libkdump_meltdown_pk_kernel+0xb2>
    23cb:	e8 00 00 00 00       	callq  23d0 <libkdump_meltdown_pk_kernel+0xb7>
    23d0:	48 89 c2             	mov    %rax,%rdx
    23d3:	8b 05 00 00 00 00    	mov    0x0(%rip),%eax        # 23d9 <libkdump_meltdown_pk_kernel+0xc0>
    23d9:	48 8d 35 00 00 00 00 	lea    0x0(%rip),%rsi        # 23e0 <libkdump_meltdown_pk_kernel+0xc7>
    23e0:	89 c7                	mov    %eax,%edi
    23e2:	e8 00 00 00 00       	callq  23e7 <libkdump_meltdown_pk_kernel+0xce>
    23e7:	48 8b 45 e8          	mov    -0x18(%rbp),%rax
    23eb:	49 89 c0             	mov    %rax,%r8
    23ee:	b9 0f 00 00 00       	mov    $0xf,%ecx
    23f3:	48 8d 15 00 00 00 00 	lea    0x0(%rip),%rdx        # 23fa <libkdump_meltdown_pk_kernel+0xe1>
    23fa:	be 28 00 00 00       	mov    $0x28,%esi
    23ff:	48 8d 3d 00 00 00 00 	lea    0x0(%rip),%rdi        # 2406 <libkdump_meltdown_pk_kernel+0xed>
    2406:	b8 00 00 00 00       	mov    $0x0,%eax
    240b:	e8 00 00 00 00       	callq  2410 <libkdump_meltdown_pk_kernel+0xf7>
    2410:	48 8d 3d 00 00 00 00 	lea    0x0(%rip),%rdi        # 2417 <libkdump_meltdown_pk_kernel+0xfe>
    2417:	e8 00 00 00 00       	callq  241c <libkdump_meltdown_pk_kernel+0x103>
    241c:	48 89 c2             	mov    %rax,%rdx
    241f:	8b 05 00 00 00 00    	mov    0x0(%rip),%eax        # 2425 <libkdump_meltdown_pk_kernel+0x10c>
    2425:	48 8d 35 00 00 00 00 	lea    0x0(%rip),%rsi        # 242c <libkdump_meltdown_pk_kernel+0x113>
    242c:	89 c7                	mov    %eax,%edi
    242e:	e8 00 00 00 00       	callq  2433 <libkdump_meltdown_pk_kernel+0x11a>
    2433:	c9                   	leaveq 
    2434:	c3                   	retq   

0000000000002435 <libkdump_prefetch_read_signal_handler>:
    2435:	4d 85 c0             	test   %r8,%r8
    2438:	74 0e                	je     2448 <libkdump_prefetch_read_signal_handler+0x13>
    243a:	48 8d 05 cc 00 00 00 	lea    0xcc(%rip),%rax        # 250d <libkdump_prefetch_read_signal_handler+0xd8>
    2441:	49 89 00             	mov    %rax,(%r8)
    2444:	83 c8 ff             	or     $0xffffffff,%eax
    2447:	c3                   	retq   
    2448:	55                   	push   %rbp
    2449:	48 89 e5             	mov    %rsp,%rbp
    244c:	41 55                	push   %r13
    244e:	41 54                	push   %r12
    2450:	53                   	push   %rbx
    2451:	48 83 ec 38          	sub    $0x38,%rsp
    2455:	8b 05 00 00 00 00    	mov    0x0(%rip),%eax        # 245b <libkdump_prefetch_read_signal_handler+0x26>
    245b:	89 4d dc             	mov    %ecx,-0x24(%rbp)
    245e:	89 55 bc             	mov    %edx,-0x44(%rbp)
    2461:	89 75 d0             	mov    %esi,-0x30(%rbp)
    2464:	48 89 7d c0          	mov    %rdi,-0x40(%rbp)
    2468:	c7 45 d4 00 00 00 00 	movl   $0x0,-0x2c(%rbp)
    246f:	ff c0                	inc    %eax
    2471:	c7 45 d8 00 00 00 00 	movl   $0x0,-0x28(%rbp)
    2478:	48 98                	cltq   
    247a:	48 89 45 c8          	mov    %rax,-0x38(%rbp)
    247e:	8b 05 00 00 00 00    	mov    0x0(%rip),%eax        # 2484 <libkdump_prefetch_read_signal_handler+0x4f>
    2484:	83 f8 01             	cmp    $0x1,%eax
    2487:	75 0a                	jne    2493 <libkdump_prefetch_read_signal_handler+0x5e>
    2489:	e8 00 00 00 00       	callq  248e <libkdump_prefetch_read_signal_handler+0x59>
    248e:	e9 09 04 00 00       	jmpq   289c <libkdump_prefetch_read_signal_handler+0x467>
    2493:	83 f8 02             	cmp    $0x2,%eax
    2496:	48 8b 5d c8          	mov    -0x38(%rbp),%rbx
    249a:	75 14                	jne    24b0 <libkdump_prefetch_read_signal_handler+0x7b>
    249c:	8b 55 bc             	mov    -0x44(%rbp),%edx
    249f:	8b 75 d0             	mov    -0x30(%rbp),%esi
    24a2:	48 8b 7d c0          	mov    -0x40(%rbp),%rdi
    24a6:	e8 00 00 00 00       	callq  24ab <libkdump_prefetch_read_signal_handler+0x76>
    24ab:	e9 ec 03 00 00       	jmpq   289c <libkdump_prefetch_read_signal_handler+0x467>
    24b0:	8b 45 dc             	mov    -0x24(%rbp),%eax
    24b3:	c1 e0 0c             	shl    $0xc,%eax
    24b6:	48 98                	cltq   
    24b8:	48 89 45 b0          	mov    %rax,-0x50(%rbp)
    24bc:	48 8d 43 ff          	lea    -0x1(%rbx),%rax
    24c0:	48 85 db             	test   %rbx,%rbx
    24c3:	48 89 45 c8          	mov    %rax,-0x38(%rbp)
    24c7:	0f 84 9a 03 00 00    	je     2867 <libkdump_prefetch_read_signal_handler+0x432>
    24cd:	8b 55 bc             	mov    -0x44(%rbp),%edx
    24d0:	8b 75 d0             	mov    -0x30(%rbp),%esi
    24d3:	48 8b 7d c0          	mov    -0x40(%rbp),%rdi
    24d7:	e8 00 00 00 00       	callq  24dc <libkdump_prefetch_read_signal_handler+0xa7>
    24dc:	83 3d 00 00 00 00 00 	cmpl   $0x0,0x0(%rip)        # 24e3 <libkdump_prefetch_read_signal_handler+0xae>
    24e3:	0f 85 c6 02 00 00    	jne    27af <libkdump_prefetch_read_signal_handler+0x37a>
    24e9:	48 8b 05 00 00 00 00 	mov    0x0(%rip),%rax        # 24f0 <libkdump_prefetch_read_signal_handler+0xbb>
    24f0:	48 8d 78 c0          	lea    -0x40(%rax),%rdi
    24f4:	e8 bd e2 ff ff       	callq  7b6 <flush>
    24f9:	48 8d 3d 00 00 00 00 	lea    0x0(%rip),%rdi        # 2500 <libkdump_prefetch_read_signal_handler+0xcb>
    2500:	e8 00 00 00 00       	callq  2505 <libkdump_prefetch_read_signal_handler+0xd0>
    2505:	85 c0                	test   %eax,%eax
    2507:	0f 85 b9 02 00 00    	jne    27c6 <libkdump_prefetch_read_signal_handler+0x391>
    250d:	48 8b 1d 00 00 00 00 	mov    0x0(%rip),%rbx        # 2514 <libkdump_prefetch_read_signal_handler+0xdf>
    2514:	48 8b 0d 00 00 00 00 	mov    0x0(%rip),%rcx        # 251b <libkdump_prefetch_read_signal_handler+0xe6>
    251b:	48 29 d9             	sub    %rbx,%rcx
    251e:	48 83 eb 40          	sub    $0x40,%rbx
    2522:	48 8b 3b             	mov    (%rbx),%rdi
    2525:	48 8b 0c 0f          	mov    (%rdi,%rcx,1),%rcx
    2529:	48 8b 0c 0f          	mov    (%rdi,%rcx,1),%rcx
    252d:	48 83 c1 01          	add    $0x1,%rcx
    2531:	48 83 e9 01          	sub    $0x1,%rcx
    2535:	48 83 c1 01          	add    $0x1,%rcx
    2539:	48 83 e9 01          	sub    $0x1,%rcx
    253d:	48 83 c1 01          	add    $0x1,%rcx
    2541:	48 83 e9 01          	sub    $0x1,%rcx
    2545:	48 83 c1 01          	add    $0x1,%rcx
    2549:	48 83 e9 01          	sub    $0x1,%rcx
    254d:	48 83 c1 01          	add    $0x1,%rcx
    2551:	48 83 e9 01          	sub    $0x1,%rcx
    2555:	48 83 c1 01          	add    $0x1,%rcx
    2559:	48 83 e9 01          	sub    $0x1,%rcx
    255d:	48 83 c1 01          	add    $0x1,%rcx
    2561:	48 83 e9 01          	sub    $0x1,%rcx
    2565:	48 83 c1 01          	add    $0x1,%rcx
    2569:	48 83 e9 01          	sub    $0x1,%rcx
    256d:	48 83 c1 01          	add    $0x1,%rcx
    2571:	48 83 e9 01          	sub    $0x1,%rcx
    2575:	48 83 c1 01          	add    $0x1,%rcx
    2579:	48 83 e9 01          	sub    $0x1,%rcx
    257d:	48 83 c1 01          	add    $0x1,%rcx
    2581:	48 83 e9 01          	sub    $0x1,%rcx
    2585:	48 83 c1 01          	add    $0x1,%rcx
    2589:	48 83 e9 01          	sub    $0x1,%rcx
    258d:	48 83 c1 01          	add    $0x1,%rcx
    2591:	48 83 e9 01          	sub    $0x1,%rcx
    2595:	48 83 c1 01          	add    $0x1,%rcx
    2599:	48 83 e9 01          	sub    $0x1,%rcx
    259d:	48 83 c1 01          	add    $0x1,%rcx
    25a1:	48 83 e9 01          	sub    $0x1,%rcx
    25a5:	48 83 c1 01          	add    $0x1,%rcx
    25a9:	48 83 e9 01          	sub    $0x1,%rcx
    25ad:	48 83 c1 01          	add    $0x1,%rcx
    25b1:	48 83 e9 01          	sub    $0x1,%rcx
    25b5:	48 83 c1 01          	add    $0x1,%rcx
    25b9:	48 83 e9 01          	sub    $0x1,%rcx
    25bd:	48 83 c1 01          	add    $0x1,%rcx
    25c1:	48 83 e9 01          	sub    $0x1,%rcx
    25c5:	48 83 c1 01          	add    $0x1,%rcx
    25c9:	48 83 e9 01          	sub    $0x1,%rcx
    25cd:	48 83 c1 01          	add    $0x1,%rcx
    25d1:	48 83 e9 01          	sub    $0x1,%rcx
    25d5:	48 83 c1 01          	add    $0x1,%rcx
    25d9:	48 83 e9 01          	sub    $0x1,%rcx
    25dd:	48 83 c1 01          	add    $0x1,%rcx
    25e1:	48 83 e9 01          	sub    $0x1,%rcx
    25e5:	48 83 c1 01          	add    $0x1,%rcx
    25e9:	48 83 e9 01          	sub    $0x1,%rcx
    25ed:	48 83 c1 01          	add    $0x1,%rcx
    25f1:	48 83 e9 01          	sub    $0x1,%rcx
    25f5:	48 83 c1 01          	add    $0x1,%rcx
    25f9:	48 83 e9 01          	sub    $0x1,%rcx
    25fd:	48 83 c1 01          	add    $0x1,%rcx
    2601:	48 83 e9 01          	sub    $0x1,%rcx
    2605:	48 83 c1 01          	add    $0x1,%rcx
    2609:	48 83 e9 01          	sub    $0x1,%rcx
    260d:	48 83 c1 01          	add    $0x1,%rcx
    2611:	48 83 e9 01          	sub    $0x1,%rcx
    2615:	48 83 c1 01          	add    $0x1,%rcx
    2619:	48 83 e9 01          	sub    $0x1,%rcx
    261d:	48 83 c1 01          	add    $0x1,%rcx
    2621:	48 83 e9 01          	sub    $0x1,%rcx
    2625:	48 83 c1 01          	add    $0x1,%rcx
    2629:	48 83 e9 01          	sub    $0x1,%rcx
    262d:	48 83 c1 01          	add    $0x1,%rcx
    2631:	48 83 e9 01          	sub    $0x1,%rcx
    2635:	48 83 c1 01          	add    $0x1,%rcx
    2639:	48 83 e9 01          	sub    $0x1,%rcx
    263d:	48 83 c1 01          	add    $0x1,%rcx
    2641:	48 83 e9 01          	sub    $0x1,%rcx
    2645:	48 83 c1 01          	add    $0x1,%rcx
    2649:	48 83 e9 01          	sub    $0x1,%rcx
    264d:	48 83 c1 01          	add    $0x1,%rcx
    2651:	48 83 e9 01          	sub    $0x1,%rcx
    2655:	48 83 c1 01          	add    $0x1,%rcx
    2659:	48 83 e9 01          	sub    $0x1,%rcx
    265d:	48 83 c1 01          	add    $0x1,%rcx
    2661:	48 83 e9 01          	sub    $0x1,%rcx
    2665:	48 83 c1 01          	add    $0x1,%rcx
    2669:	48 83 e9 01          	sub    $0x1,%rcx
    266d:	48 83 c1 01          	add    $0x1,%rcx
    2671:	48 83 e9 01          	sub    $0x1,%rcx
    2675:	48 83 c1 01          	add    $0x1,%rcx
    2679:	48 83 e9 01          	sub    $0x1,%rcx
    267d:	48 83 c1 01          	add    $0x1,%rcx
    2681:	48 83 e9 01          	sub    $0x1,%rcx
    2685:	48 83 c1 01          	add    $0x1,%rcx
    2689:	48 83 e9 01          	sub    $0x1,%rcx
    268d:	48 83 c1 01          	add    $0x1,%rcx
    2691:	48 83 e9 01          	sub    $0x1,%rcx
    2695:	48 83 c1 01          	add    $0x1,%rcx
    2699:	48 83 e9 01          	sub    $0x1,%rcx
    269d:	48 83 c1 01          	add    $0x1,%rcx
    26a1:	48 83 e9 01          	sub    $0x1,%rcx
    26a5:	48 83 c1 01          	add    $0x1,%rcx
    26a9:	48 83 e9 01          	sub    $0x1,%rcx
    26ad:	48 83 c1 01          	add    $0x1,%rcx
    26b1:	48 83 e9 01          	sub    $0x1,%rcx
    26b5:	48 83 c1 01          	add    $0x1,%rcx
    26b9:	48 83 e9 01          	sub    $0x1,%rcx
    26bd:	48 83 c1 01          	add    $0x1,%rcx
    26c1:	48 83 e9 01          	sub    $0x1,%rcx
    26c5:	48 83 c1 01          	add    $0x1,%rcx
    26c9:	48 83 e9 01          	sub    $0x1,%rcx
    26cd:	48 83 c1 01          	add    $0x1,%rcx
    26d1:	48 83 e9 01          	sub    $0x1,%rcx
    26d5:	48 83 c1 01          	add    $0x1,%rcx
    26d9:	48 83 e9 01          	sub    $0x1,%rcx
    26dd:	48 83 c1 01          	add    $0x1,%rcx
    26e1:	48 83 e9 01          	sub    $0x1,%rcx
    26e5:	48 83 c1 01          	add    $0x1,%rcx
    26e9:	48 83 e9 01          	sub    $0x1,%rcx
    26ed:	48 83 c1 01          	add    $0x1,%rcx
    26f1:	48 83 e9 01          	sub    $0x1,%rcx
    26f5:	48 83 c1 01          	add    $0x1,%rcx
    26f9:	48 83 e9 01          	sub    $0x1,%rcx
    26fd:	48 83 c1 01          	add    $0x1,%rcx
    2701:	48 83 e9 01          	sub    $0x1,%rcx
    2705:	48 83 c1 01          	add    $0x1,%rcx
    2709:	48 83 e9 01          	sub    $0x1,%rcx
    270d:	48 83 c1 01          	add    $0x1,%rcx
    2711:	48 83 e9 01          	sub    $0x1,%rcx
    2715:	48 83 c1 01          	add    $0x1,%rcx
    2719:	48 83 e9 01          	sub    $0x1,%rcx
    271d:	48 83 c1 01          	add    $0x1,%rcx
    2721:	48 83 e9 01          	sub    $0x1,%rcx
    2725:	48 83 c1 01          	add    $0x1,%rcx
    2729:	48 83 e9 01          	sub    $0x1,%rcx
    272d:	48 83 c1 01          	add    $0x1,%rcx
    2731:	48 83 e9 01          	sub    $0x1,%rcx
    2735:	48 83 c1 01          	add    $0x1,%rcx
    2739:	48 83 e9 01          	sub    $0x1,%rcx
    273d:	48 83 c1 01          	add    $0x1,%rcx
    2741:	48 83 e9 01          	sub    $0x1,%rcx
    2745:	48 83 c1 01          	add    $0x1,%rcx
    2749:	48 83 e9 01          	sub    $0x1,%rcx
    274d:	48 83 c1 01          	add    $0x1,%rcx
    2751:	48 83 e9 01          	sub    $0x1,%rcx
    2755:	48 83 c1 01          	add    $0x1,%rcx
    2759:	48 83 e9 01          	sub    $0x1,%rcx
    275d:	48 83 c1 01          	add    $0x1,%rcx
    2761:	48 83 e9 01          	sub    $0x1,%rcx
    2765:	48 83 c1 01          	add    $0x1,%rcx
    2769:	48 83 e9 01          	sub    $0x1,%rcx
    276d:	48 83 c1 01          	add    $0x1,%rcx
    2771:	48 83 e9 01          	sub    $0x1,%rcx
    2775:	48 83 c1 01          	add    $0x1,%rcx
    2779:	48 83 e9 01          	sub    $0x1,%rcx
    277d:	48 83 c1 01          	add    $0x1,%rcx
    2781:	48 83 e9 01          	sub    $0x1,%rcx
    2785:	48 83 c1 01          	add    $0x1,%rcx
    2789:	48 83 e9 01          	sub    $0x1,%rcx
    278d:	48 83 c1 01          	add    $0x1,%rcx
    2791:	48 83 e9 01          	sub    $0x1,%rcx
    2795:	48 83 c1 01          	add    $0x1,%rcx
    2799:	48 83 e9 01          	sub    $0x1,%rcx
    279d:	48 83 c1 01          	add    $0x1,%rcx
    27a1:	48 83 e9 01          	sub    $0x1,%rcx
    27a5:	48 83 c1 01          	add    $0x1,%rcx
    27a9:	48 83 e9 01          	sub    $0x1,%rcx
    27ad:	eb 17                	jmp    27c6 <libkdump_prefetch_read_signal_handler+0x391>
    27af:	8b 55 dc             	mov    -0x24(%rbp),%edx
    27b2:	be 01 00 00 00       	mov    $0x1,%esi
    27b7:	bf 01 00 00 00       	mov    $0x1,%edi
    27bc:	e8 00 00 00 00       	callq  27c1 <libkdump_prefetch_read_signal_handler+0x38c>
    27c1:	e9 23 fd ff ff       	jmpq   24e9 <libkdump_prefetch_read_signal_handler+0xb4>
    27c6:	4c 8b 65 b0          	mov    -0x50(%rbp),%r12
    27ca:	4c 03 25 00 00 00 00 	add    0x0(%rip),%r12        # 27d1 <libkdump_prefetch_read_signal_handler+0x39c>
    27d1:	31 c0                	xor    %eax,%eax
    27d3:	e8 93 df ff ff       	callq  76b <rdtsc>
    27d8:	49 89 c5             	mov    %rax,%r13
    27db:	4c 89 e7             	mov    %r12,%rdi
    27de:	e8 be df ff ff       	callq  7a1 <maccess>
    27e3:	31 c0                	xor    %eax,%eax
    27e5:	e8 81 df ff ff       	callq  76b <rdtsc>
    27ea:	4c 89 e7             	mov    %r12,%rdi
    27ed:	48 89 c3             	mov    %rax,%rbx
    27f0:	e8 c1 df ff ff       	callq  7b6 <flush>
    27f5:	4c 8b 25 00 00 00 00 	mov    0x0(%rip),%r12        # 27fc <libkdump_prefetch_read_signal_handler+0x3c7>
    27fc:	48 89 d8             	mov    %rbx,%rax
    27ff:	4c 29 e8             	sub    %r13,%rax
    2802:	48 3b 05 00 00 00 00 	cmp    0x0(%rip),%rax        # 2809 <libkdump_prefetch_read_signal_handler+0x3d4>
    2809:	83 55 d4 00          	adcl   $0x0,-0x2c(%rbp)
    280d:	31 c0                	xor    %eax,%eax
    280f:	e8 57 df ff ff       	callq  76b <rdtsc>
    2814:	4c 89 e7             	mov    %r12,%rdi
    2817:	49 89 c5             	mov    %rax,%r13
    281a:	e8 82 df ff ff       	callq  7a1 <maccess>
    281f:	31 c0                	xor    %eax,%eax
    2821:	e8 45 df ff ff       	callq  76b <rdtsc>
    2826:	4c 89 e7             	mov    %r12,%rdi
    2829:	48 89 c3             	mov    %rax,%rbx
    282c:	e8 85 df ff ff       	callq  7b6 <flush>
    2831:	48 89 d8             	mov    %rbx,%rax
    2834:	48 8b 5d c8          	mov    -0x38(%rbp),%rbx
    2838:	4c 29 e8             	sub    %r13,%rax
    283b:	48 3b 05 00 00 00 00 	cmp    0x0(%rip),%rax        # 2842 <libkdump_prefetch_read_signal_handler+0x40d>
    2842:	83 55 d8 00          	adcl   $0x0,-0x28(%rbp)
    2846:	83 3d 00 00 00 00 00 	cmpl   $0x0,0x0(%rip)        # 284d <libkdump_prefetch_read_signal_handler+0x418>
    284d:	0f 84 69 fc ff ff    	je     24bc <libkdump_prefetch_read_signal_handler+0x87>
    2853:	8b 55 dc             	mov    -0x24(%rbp),%edx
    2856:	be 01 00 00 00       	mov    $0x1,%esi
    285b:	31 ff                	xor    %edi,%edi
    285d:	e8 00 00 00 00       	callq  2862 <libkdump_prefetch_read_signal_handler+0x42d>
    2862:	e9 55 fc ff ff       	jmpq   24bc <libkdump_prefetch_read_signal_handler+0x87>
    2867:	8b 4d d8             	mov    -0x28(%rbp),%ecx
    286a:	8b 55 d4             	mov    -0x2c(%rbp),%edx
    286d:	48 8d 3d 00 00 00 00 	lea    0x0(%rip),%rdi        # 2874 <libkdump_prefetch_read_signal_handler+0x43f>
    2874:	8b 75 dc             	mov    -0x24(%rbp),%esi
    2877:	31 c0                	xor    %eax,%eax
    2879:	e8 00 00 00 00       	callq  287e <libkdump_prefetch_read_signal_handler+0x449>
    287e:	83 7d d4 00          	cmpl   $0x0,-0x2c(%rbp)
    2882:	75 09                	jne    288d <libkdump_prefetch_read_signal_handler+0x458>
    2884:	83 c8 ff             	or     $0xffffffff,%eax
    2887:	83 7d d8 00          	cmpl   $0x0,-0x28(%rbp)
    288b:	74 0f                	je     289c <libkdump_prefetch_read_signal_handler+0x467>
    288d:	8b 4d d8             	mov    -0x28(%rbp),%ecx
    2890:	39 4d d4             	cmp    %ecx,-0x2c(%rbp)
    2893:	b8 00 00 00 00       	mov    $0x0,%eax
    2898:	0f 4d 45 dc          	cmovge -0x24(%rbp),%eax
    289c:	48 83 c4 38          	add    $0x38,%rsp
    28a0:	5b                   	pop    %rbx
    28a1:	41 5c                	pop    %r12
    28a3:	41 5d                	pop    %r13
    28a5:	5d                   	pop    %rbp
    28a6:	c3                   	retq   

00000000000028a7 <libkdump_select_code_sequence>:
    28a7:	55                   	push   %rbp
    28a8:	48 89 e5             	mov    %rsp,%rbp
    28ab:	48 83 ec 20          	sub    $0x20,%rsp
    28af:	89 7d ec             	mov    %edi,-0x14(%rbp)
    28b2:	48 89 75 e0          	mov    %rsi,-0x20(%rbp)
    28b6:	83 7d ec 0c          	cmpl   $0xc,-0x14(%rbp)
    28ba:	0f 87 f0 00 00 00    	ja     29b0 <libkdump_select_code_sequence+0x109>
    28c0:	8b 45 ec             	mov    -0x14(%rbp),%eax
    28c3:	48 8d 14 85 00 00 00 	lea    0x0(,%rax,4),%rdx
    28ca:	00 
    28cb:	48 8d 05 00 00 00 00 	lea    0x0(%rip),%rax        # 28d2 <libkdump_select_code_sequence+0x2b>
    28d2:	8b 04 02             	mov    (%rdx,%rax,1),%eax
    28d5:	48 63 d0             	movslq %eax,%rdx
    28d8:	48 8d 05 00 00 00 00 	lea    0x0(%rip),%rax        # 28df <libkdump_select_code_sequence+0x38>
    28df:	48 01 d0             	add    %rdx,%rax
    28e2:	ff e0                	jmpq   *%rax
    28e4:	48 8b 05 00 00 00 00 	mov    0x0(%rip),%rax        # 28eb <libkdump_select_code_sequence+0x44>
    28eb:	48 83 c0 16          	add    $0x16,%rax
    28ef:	48 89 45 f0          	mov    %rax,-0x10(%rbp)
    28f3:	48 c7 45 f8 12 00 00 	movq   $0x12,-0x8(%rbp)
    28fa:	00 
    28fb:	e9 b1 00 00 00       	jmpq   29b1 <libkdump_select_code_sequence+0x10a>
    2900:	48 8b 05 00 00 00 00 	mov    0x0(%rip),%rax        # 2907 <libkdump_select_code_sequence+0x60>
    2907:	48 83 c0 16          	add    $0x16,%rax
    290b:	48 89 45 f0          	mov    %rax,-0x10(%rbp)
    290f:	48 c7 45 f8 1a 00 00 	movq   $0x1a,-0x8(%rbp)
    2916:	00 
    2917:	e9 95 00 00 00       	jmpq   29b1 <libkdump_select_code_sequence+0x10a>
    291c:	48 8b 05 00 00 00 00 	mov    0x0(%rip),%rax        # 2923 <libkdump_select_code_sequence+0x7c>
    2923:	48 83 c0 16          	add    $0x16,%rax
    2927:	48 89 45 f0          	mov    %rax,-0x10(%rbp)
    292b:	48 c7 45 f8 1d 00 00 	movq   $0x1d,-0x8(%rbp)
    2932:	00 
    2933:	eb 7c                	jmp    29b1 <libkdump_select_code_sequence+0x10a>
    2935:	48 8b 05 00 00 00 00 	mov    0x0(%rip),%rax        # 293c <libkdump_select_code_sequence+0x95>
    293c:	48 83 c0 16          	add    $0x16,%rax
    2940:	48 89 45 f0          	mov    %rax,-0x10(%rbp)
    2944:	48 c7 45 f8 21 00 00 	movq   $0x21,-0x8(%rbp)
    294b:	00 
    294c:	eb 63                	jmp    29b1 <libkdump_select_code_sequence+0x10a>
    294e:	48 8b 05 00 00 00 00 	mov    0x0(%rip),%rax        # 2955 <libkdump_select_code_sequence+0xae>
    2955:	48 83 c0 16          	add    $0x16,%rax
    2959:	48 89 45 f0          	mov    %rax,-0x10(%rbp)
    295d:	48 c7 45 f8 20 00 00 	movq   $0x20,-0x8(%rbp)
    2964:	00 
    2965:	eb 4a                	jmp    29b1 <libkdump_select_code_sequence+0x10a>
    2967:	48 8b 05 00 00 00 00 	mov    0x0(%rip),%rax        # 296e <libkdump_select_code_sequence+0xc7>
    296e:	48 83 c0 19          	add    $0x19,%rax
    2972:	48 89 45 f0          	mov    %rax,-0x10(%rbp)
    2976:	48 c7 45 f8 20 00 00 	movq   $0x20,-0x8(%rbp)
    297d:	00 
    297e:	eb 31                	jmp    29b1 <libkdump_select_code_sequence+0x10a>
    2980:	48 8b 05 00 00 00 00 	mov    0x0(%rip),%rax        # 2987 <libkdump_select_code_sequence+0xe0>
    2987:	48 83 c0 19          	add    $0x19,%rax
    298b:	48 89 45 f0          	mov    %rax,-0x10(%rbp)
    298f:	48 c7 45 f8 20 00 00 	movq   $0x20,-0x8(%rbp)
    2996:	00 
    2997:	eb 18                	jmp    29b1 <libkdump_select_code_sequence+0x10a>
    2999:	48 8b 05 00 00 00 00 	mov    0x0(%rip),%rax        # 29a0 <libkdump_select_code_sequence+0xf9>
    29a0:	48 83 c0 19          	add    $0x19,%rax
    29a4:	48 89 45 f0          	mov    %rax,-0x10(%rbp)
    29a8:	48 c7 45 f8 1d 00 00 	movq   $0x1d,-0x8(%rbp)
    29af:	00 
    29b0:	90                   	nop
    29b1:	48 83 7d f8 00       	cmpq   $0x0,-0x8(%rbp)
    29b6:	74 17                	je     29cf <libkdump_select_code_sequence+0x128>
    29b8:	48 8b 4d f0          	mov    -0x10(%rbp),%rcx
    29bc:	48 8b 55 f8          	mov    -0x8(%rbp),%rdx
    29c0:	48 8b 45 e0          	mov    -0x20(%rbp),%rax
    29c4:	48 89 ce             	mov    %rcx,%rsi
    29c7:	48 89 c7             	mov    %rax,%rdi
    29ca:	e8 00 00 00 00       	callq  29cf <libkdump_select_code_sequence+0x128>
    29cf:	90                   	nop
    29d0:	c9                   	leaveq 
    29d1:	c3                   	retq   

00000000000029d2 <libkdump_window_measure>:
    29d2:	55                   	push   %rbp
    29d3:	48 89 e5             	mov    %rsp,%rbp
    29d6:	48 81 ec 20 04 00 00 	sub    $0x420,%rsp
    29dd:	48 89 bd f8 fb ff ff 	mov    %rdi,-0x408(%rbp)
    29e4:	48 89 b5 f0 fb ff ff 	mov    %rsi,-0x410(%rbp)
    29eb:	89 95 ec fb ff ff    	mov    %edx,-0x414(%rbp)
    29f1:	89 8d e8 fb ff ff    	mov    %ecx,-0x418(%rbp)
    29f7:	44 89 85 e4 fb ff ff 	mov    %r8d,-0x41c(%rbp)
    29fe:	44 89 8d e0 fb ff ff 	mov    %r9d,-0x420(%rbp)
    2a05:	64 48 8b 04 25 28 00 	mov    %fs:0x28,%rax
    2a0c:	00 00 
    2a0e:	48 89 45 f8          	mov    %rax,-0x8(%rbp)
    2a12:	31 c0                	xor    %eax,%eax
    2a14:	48 8b 85 f8 fb ff ff 	mov    -0x408(%rbp),%rax
    2a1b:	48 89 05 00 00 00 00 	mov    %rax,0x0(%rip)        # 2a22 <libkdump_window_measure+0x50>
    2a22:	48 8b 85 f0 fb ff ff 	mov    -0x410(%rbp),%rax
    2a29:	48 89 05 00 00 00 00 	mov    %rax,0x0(%rip)        # 2a30 <libkdump_window_measure+0x5e>
    2a30:	48 83 bd f0 fb ff ff 	cmpq   $0x0,-0x410(%rbp)
    2a37:	00 
    2a38:	74 16                	je     2a50 <libkdump_window_measure+0x7e>
    2a3a:	48 8b 85 f0 fb ff ff 	mov    -0x410(%rbp),%rax
    2a41:	8b 95 e0 fb ff ff    	mov    -0x420(%rbp),%edx
    2a47:	c1 e2 0c             	shl    $0xc,%edx
    2a4a:	48 63 d2             	movslq %edx,%rdx
    2a4d:	48 89 10             	mov    %rdx,(%rax)
    2a50:	48 c7 85 18 fc ff ff 	movq   $0x0,-0x3e8(%rbp)
    2a57:	00 00 00 00 
    2a5b:	48 8d 85 18 fc ff ff 	lea    -0x3e8(%rbp),%rax
    2a62:	49 89 c0             	mov    %rax,%r8
    2a65:	b9 00 00 00 00       	mov    $0x0,%ecx
    2a6a:	ba 00 00 00 00       	mov    $0x0,%edx
    2a6f:	be 00 00 00 00       	mov    $0x0,%esi
    2a74:	bf 00 00 00 00       	mov    $0x0,%edi
    2a79:	e8 00 00 00 00       	callq  2a7e <libkdump_window_measure+0xac>
    2a7e:	48 8b 85 18 fc ff ff 	mov    -0x3e8(%rbp),%rax
    2a85:	48 83 c0 0e          	add    $0xe,%rax
    2a89:	48 89 85 18 fc ff ff 	mov    %rax,-0x3e8(%rbp)
    2a90:	48 8b 85 18 fc ff ff 	mov    -0x3e8(%rbp),%rax
    2a97:	48 89 c6             	mov    %rax,%rsi
    2a9a:	48 8d 3d 00 00 00 00 	lea    0x0(%rip),%rdi        # 2aa1 <libkdump_window_measure+0xcf>
    2aa1:	b8 00 00 00 00       	mov    $0x0,%eax
    2aa6:	e8 00 00 00 00       	callq  2aab <libkdump_window_measure+0xd9>
    2aab:	48 8b 85 18 fc ff ff 	mov    -0x3e8(%rbp),%rax
    2ab2:	48 25 00 f0 ff ff    	and    $0xfffffffffffff000,%rax
    2ab8:	ba 07 00 00 00       	mov    $0x7,%edx
    2abd:	be 00 10 00 00       	mov    $0x1000,%esi
    2ac2:	48 89 c7             	mov    %rax,%rdi
    2ac5:	e8 00 00 00 00       	callq  2aca <libkdump_window_measure+0xf8>
    2aca:	85 c0                	test   %eax,%eax
    2acc:	74 1f                	je     2aed <libkdump_window_measure+0x11b>
    2ace:	48 8d 0d 00 00 00 00 	lea    0x0(%rip),%rcx        # 2ad5 <libkdump_window_measure+0x103>
    2ad5:	ba e4 05 00 00       	mov    $0x5e4,%edx
    2ada:	48 8d 35 00 00 00 00 	lea    0x0(%rip),%rsi        # 2ae1 <libkdump_window_measure+0x10f>
    2ae1:	48 8d 3d 00 00 00 00 	lea    0x0(%rip),%rdi        # 2ae8 <libkdump_window_measure+0x116>
    2ae8:	e8 00 00 00 00       	callq  2aed <libkdump_window_measure+0x11b>
    2aed:	48 8b 85 18 fc ff ff 	mov    -0x3e8(%rbp),%rax
    2af4:	48 89 c2             	mov    %rax,%rdx
    2af7:	8b 85 ec fb ff ff    	mov    -0x414(%rbp),%eax
    2afd:	48 89 d6             	mov    %rdx,%rsi
    2b00:	89 c7                	mov    %eax,%edi
    2b02:	e8 00 00 00 00       	callq  2b07 <libkdump_window_measure+0x135>
    2b07:	83 bd ec fb ff ff 03 	cmpl   $0x3,-0x414(%rbp)
    2b0e:	75 19                	jne    2b29 <libkdump_window_measure+0x157>
    2b10:	48 8b 85 f8 fb ff ff 	mov    -0x408(%rbp),%rax
    2b17:	be 00 00 00 00       	mov    $0x0,%esi
    2b1c:	48 89 c7             	mov    %rax,%rdi
    2b1f:	e8 00 00 00 00       	callq  2b24 <libkdump_window_measure+0x152>
    2b24:	e9 c2 00 00 00       	jmpq   2beb <libkdump_window_measure+0x219>
    2b29:	83 bd ec fb ff ff 04 	cmpl   $0x4,-0x414(%rbp)
    2b30:	74 09                	je     2b3b <libkdump_window_measure+0x169>
    2b32:	83 bd ec fb ff ff 05 	cmpl   $0x5,-0x414(%rbp)
    2b39:	75 0f                	jne    2b4a <libkdump_window_measure+0x178>
    2b3b:	c7 05 00 00 00 00 01 	movl   $0x1,0x0(%rip)        # 2b45 <libkdump_window_measure+0x173>
    2b42:	00 00 00 
    2b45:	e9 a1 00 00 00       	jmpq   2beb <libkdump_window_measure+0x219>
    2b4a:	83 bd ec fb ff ff 07 	cmpl   $0x7,-0x414(%rbp)
    2b51:	75 0f                	jne    2b62 <libkdump_window_measure+0x190>
    2b53:	c7 05 00 00 00 00 01 	movl   $0x1,0x0(%rip)        # 2b5d <libkdump_window_measure+0x18b>
    2b5a:	00 00 00 
    2b5d:	e9 89 00 00 00       	jmpq   2beb <libkdump_window_measure+0x219>
    2b62:	83 bd ec fb ff ff 08 	cmpl   $0x8,-0x414(%rbp)
    2b69:	75 1b                	jne    2b86 <libkdump_window_measure+0x1b4>
    2b6b:	c7 05 00 00 00 00 02 	movl   $0x2,0x0(%rip)        # 2b75 <libkdump_window_measure+0x1a3>
    2b72:	00 00 00 
    2b75:	48 8b 85 f8 fb ff ff 	mov    -0x408(%rbp),%rax
    2b7c:	48 89 c7             	mov    %rax,%rdi
    2b7f:	e8 00 00 00 00       	callq  2b84 <libkdump_window_measure+0x1b2>
    2b84:	eb 65                	jmp    2beb <libkdump_window_measure+0x219>
    2b86:	83 bd ec fb ff ff 09 	cmpl   $0x9,-0x414(%rbp)
    2b8d:	75 11                	jne    2ba0 <libkdump_window_measure+0x1ce>
    2b8f:	48 8b 85 f8 fb ff ff 	mov    -0x408(%rbp),%rax
    2b96:	48 89 c7             	mov    %rax,%rdi
    2b99:	e8 00 00 00 00       	callq  2b9e <libkdump_window_measure+0x1cc>
    2b9e:	eb 4b                	jmp    2beb <libkdump_window_measure+0x219>
    2ba0:	83 bd ec fb ff ff 0a 	cmpl   $0xa,-0x414(%rbp)
    2ba7:	75 42                	jne    2beb <libkdump_window_measure+0x219>
    2ba9:	48 8b 85 f8 fb ff ff 	mov    -0x408(%rbp),%rax
    2bb0:	48 25 00 f0 ff ff    	and    $0xfffffffffffff000,%rax
    2bb6:	ba 01 00 00 00       	mov    $0x1,%edx
    2bbb:	be 00 10 00 00       	mov    $0x1000,%esi
    2bc0:	48 89 c7             	mov    %rax,%rdi
    2bc3:	e8 00 00 00 00       	callq  2bc8 <libkdump_window_measure+0x1f6>
    2bc8:	85 c0                	test   %eax,%eax
    2bca:	74 1f                	je     2beb <libkdump_window_measure+0x219>
    2bcc:	48 8d 0d 00 00 00 00 	lea    0x0(%rip),%rcx        # 2bd3 <libkdump_window_measure+0x201>
    2bd3:	ba f4 05 00 00       	mov    $0x5f4,%edx
    2bd8:	48 8d 35 00 00 00 00 	lea    0x0(%rip),%rsi        # 2bdf <libkdump_window_measure+0x20d>
    2bdf:	48 8d 3d 00 00 00 00 	lea    0x0(%rip),%rdi        # 2be6 <libkdump_window_measure+0x214>
    2be6:	e8 00 00 00 00       	callq  2beb <libkdump_window_measure+0x219>
    2beb:	48 8b 85 f8 fb ff ff 	mov    -0x408(%rbp),%rax
    2bf2:	48 89 c7             	mov    %rax,%rdi
    2bf5:	e8 00 00 00 00       	callq  2bfa <libkdump_window_measure+0x228>
    2bfa:	c7 85 0c fc ff ff 00 	movl   $0x0,-0x3f4(%rbp)
    2c01:	00 00 00 
    2c04:	c7 85 04 fc ff ff 00 	movl   $0x0,-0x3fc(%rbp)
    2c0b:	00 00 00 
    2c0e:	eb 1a                	jmp    2c2a <libkdump_window_measure+0x258>
    2c10:	8b 85 04 fc ff ff    	mov    -0x3fc(%rbp),%eax
    2c16:	48 98                	cltq   
    2c18:	c7 84 85 20 fc ff ff 	movl   $0x3e8,-0x3e0(%rbp,%rax,4)
    2c1f:	e8 03 00 00 
    2c23:	83 85 04 fc ff ff 01 	addl   $0x1,-0x3fc(%rbp)
    2c2a:	83 bd 04 fc ff ff 63 	cmpl   $0x63,-0x3fc(%rbp)
    2c31:	7e dd                	jle    2c10 <libkdump_window_measure+0x23e>
    2c33:	c7 85 04 fc ff ff 00 	movl   $0x0,-0x3fc(%rbp)
    2c3a:	00 00 00 
    2c3d:	eb 1a                	jmp    2c59 <libkdump_window_measure+0x287>
    2c3f:	8b 85 04 fc ff ff    	mov    -0x3fc(%rbp),%eax
    2c45:	48 98                	cltq   
    2c47:	c7 84 85 b0 fd ff ff 	movl   $0x0,-0x250(%rbp,%rax,4)
    2c4e:	00 00 00 00 
    2c52:	83 85 04 fc ff ff 01 	addl   $0x1,-0x3fc(%rbp)
    2c59:	81 bd 04 fc ff ff 90 	cmpl   $0x90,-0x3fc(%rbp)
    2c60:	00 00 00 
    2c63:	7e da                	jle    2c3f <libkdump_window_measure+0x26d>
    2c65:	48 8d 3d 00 00 00 00 	lea    0x0(%rip),%rdi        # 2c6c <libkdump_window_measure+0x29a>
    2c6c:	e8 00 00 00 00       	callq  2c71 <libkdump_window_measure+0x29f>
    2c71:	c7 85 04 fc ff ff 00 	movl   $0x0,-0x3fc(%rbp)
    2c78:	00 00 00 
    2c7b:	e9 b8 00 00 00       	jmpq   2d38 <libkdump_window_measure+0x366>
    2c80:	8b 05 00 00 00 00    	mov    0x0(%rip),%eax        # 2c86 <libkdump_window_measure+0x2b4>
    2c86:	83 f8 01             	cmp    $0x1,%eax
    2c89:	75 12                	jne    2c9d <libkdump_window_measure+0x2cb>
    2c8b:	b8 00 00 00 00       	mov    $0x0,%eax
    2c90:	e8 00 00 00 00       	callq  2c95 <libkdump_window_measure+0x2c3>
    2c95:	89 85 08 fc ff ff    	mov    %eax,-0x3f8(%rbp)
    2c9b:	eb 2d                	jmp    2cca <libkdump_window_measure+0x2f8>
    2c9d:	8b 8d e0 fb ff ff    	mov    -0x420(%rbp),%ecx
    2ca3:	8b 95 e4 fb ff ff    	mov    -0x41c(%rbp),%edx
    2ca9:	8b b5 e8 fb ff ff    	mov    -0x418(%rbp),%esi
    2caf:	48 8b 85 f0 fb ff ff 	mov    -0x410(%rbp),%rax
    2cb6:	41 b8 00 00 00 00    	mov    $0x0,%r8d
    2cbc:	48 89 c7             	mov    %rax,%rdi
    2cbf:	e8 00 00 00 00       	callq  2cc4 <libkdump_window_measure+0x2f2>
    2cc4:	89 85 08 fc ff ff    	mov    %eax,-0x3f8(%rbp)
    2cca:	83 bd 08 fc ff ff 00 	cmpl   $0x0,-0x3f8(%rbp)
    2cd1:	78 38                	js     2d0b <libkdump_window_measure+0x339>
    2cd3:	8b 85 04 fc ff ff    	mov    -0x3fc(%rbp),%eax
    2cd9:	48 98                	cltq   
    2cdb:	8b 95 08 fc ff ff    	mov    -0x3f8(%rbp),%edx
    2ce1:	89 94 85 20 fc ff ff 	mov    %edx,-0x3e0(%rbp,%rax,4)
    2ce8:	8b 85 08 fc ff ff    	mov    -0x3f8(%rbp),%eax
    2cee:	48 98                	cltq   
    2cf0:	8b 84 85 b0 fd ff ff 	mov    -0x250(%rbp,%rax,4),%eax
    2cf7:	8d 50 01             	lea    0x1(%rax),%edx
    2cfa:	8b 85 08 fc ff ff    	mov    -0x3f8(%rbp),%eax
    2d00:	48 98                	cltq   
    2d02:	89 94 85 b0 fd ff ff 	mov    %edx,-0x250(%rbp,%rax,4)
    2d09:	eb 26                	jmp    2d31 <libkdump_window_measure+0x35f>
    2d0b:	48 8d 3d 00 00 00 00 	lea    0x0(%rip),%rdi        # 2d12 <libkdump_window_measure+0x340>
    2d12:	e8 00 00 00 00       	callq  2d17 <libkdump_window_measure+0x345>
    2d17:	8b 85 04 fc ff ff    	mov    -0x3fc(%rbp),%eax
    2d1d:	48 98                	cltq   
    2d1f:	c7 84 85 20 fc ff ff 	movl   $0xffffffff,-0x3e0(%rbp,%rax,4)
    2d26:	ff ff ff ff 
    2d2a:	83 85 0c fc ff ff 01 	addl   $0x1,-0x3f4(%rbp)
    2d31:	83 85 04 fc ff ff 01 	addl   $0x1,-0x3fc(%rbp)
    2d38:	8b 05 00 00 00 00    	mov    0x0(%rip),%eax        # 2d3e <libkdump_window_measure+0x36c>
    2d3e:	3b 85 04 fc ff ff    	cmp    -0x3fc(%rbp),%eax
    2d44:	7e 0d                	jle    2d53 <libkdump_window_measure+0x381>
    2d46:	83 bd 04 fc ff ff 63 	cmpl   $0x63,-0x3fc(%rbp)
    2d4d:	0f 8e 2d ff ff ff    	jle    2c80 <libkdump_window_measure+0x2ae>
    2d53:	83 bd ec fb ff ff 04 	cmpl   $0x4,-0x414(%rbp)
    2d5a:	74 09                	je     2d65 <libkdump_window_measure+0x393>
    2d5c:	83 bd ec fb ff ff 05 	cmpl   $0x5,-0x414(%rbp)
    2d63:	75 0a                	jne    2d6f <libkdump_window_measure+0x39d>
    2d65:	c7 05 00 00 00 00 00 	movl   $0x0,0x0(%rip)        # 2d6f <libkdump_window_measure+0x39d>
    2d6c:	00 00 00 
    2d6f:	83 bd ec fb ff ff 08 	cmpl   $0x8,-0x414(%rbp)
    2d76:	74 09                	je     2d81 <libkdump_window_measure+0x3af>
    2d78:	83 bd ec fb ff ff 07 	cmpl   $0x7,-0x414(%rbp)
    2d7f:	75 0a                	jne    2d8b <libkdump_window_measure+0x3b9>
    2d81:	c7 05 00 00 00 00 00 	movl   $0x0,0x0(%rip)        # 2d8b <libkdump_window_measure+0x3b9>
    2d88:	00 00 00 
    2d8b:	83 bd ec fb ff ff 09 	cmpl   $0x9,-0x414(%rbp)
    2d92:	74 09                	je     2d9d <libkdump_window_measure+0x3cb>
    2d94:	83 bd ec fb ff ff 08 	cmpl   $0x8,-0x414(%rbp)
    2d9b:	75 0f                	jne    2dac <libkdump_window_measure+0x3da>
    2d9d:	48 8b 85 f8 fb ff ff 	mov    -0x408(%rbp),%rax
    2da4:	48 89 c7             	mov    %rax,%rdi
    2da7:	e8 00 00 00 00       	callq  2dac <libkdump_window_measure+0x3da>
    2dac:	c7 85 10 fc ff ff 00 	movl   $0x0,-0x3f0(%rbp)
    2db3:	00 00 00 
    2db6:	c7 85 14 fc ff ff 00 	movl   $0x0,-0x3ec(%rbp)
    2dbd:	00 00 00 
    2dc0:	c7 85 04 fc ff ff 00 	movl   $0x0,-0x3fc(%rbp)
    2dc7:	00 00 00 
    2dca:	e9 8e 00 00 00       	jmpq   2e5d <libkdump_window_measure+0x48b>
    2dcf:	8b 85 04 fc ff ff    	mov    -0x3fc(%rbp),%eax
    2dd5:	48 98                	cltq   
    2dd7:	8b 84 85 b0 fd ff ff 	mov    -0x250(%rbp,%rax,4),%eax
    2dde:	85 c0                	test   %eax,%eax
    2de0:	74 73                	je     2e55 <libkdump_window_measure+0x483>
    2de2:	8b 05 00 00 00 00    	mov    0x0(%rip),%eax        # 2de8 <libkdump_window_measure+0x416>
    2de8:	85 c0                	test   %eax,%eax
    2dea:	74 2f                	je     2e1b <libkdump_window_measure+0x449>
    2dec:	8b 85 04 fc ff ff    	mov    -0x3fc(%rbp),%eax
    2df2:	48 98                	cltq   
    2df4:	8b 94 85 b0 fd ff ff 	mov    -0x250(%rbp,%rax,4),%edx
    2dfb:	8b 85 04 fc ff ff    	mov    -0x3fc(%rbp),%eax
    2e01:	89 d1                	mov    %edx,%ecx
    2e03:	89 c2                	mov    %eax,%edx
    2e05:	48 8d 35 00 00 00 00 	lea    0x0(%rip),%rsi        # 2e0c <libkdump_window_measure+0x43a>
    2e0c:	bf 01 00 00 00       	mov    $0x1,%edi
    2e11:	b8 00 00 00 00       	mov    $0x0,%eax
    2e16:	e8 55 d6 ff ff       	callq  470 <debug>
    2e1b:	8b 85 04 fc ff ff    	mov    -0x3fc(%rbp),%eax
    2e21:	48 98                	cltq   
    2e23:	8b 84 85 b0 fd ff ff 	mov    -0x250(%rbp,%rax,4),%eax
    2e2a:	3b 85 10 fc ff ff    	cmp    -0x3f0(%rbp),%eax
    2e30:	7e 24                	jle    2e56 <libkdump_window_measure+0x484>
    2e32:	8b 85 04 fc ff ff    	mov    -0x3fc(%rbp),%eax
    2e38:	48 98                	cltq   
    2e3a:	8b 84 85 b0 fd ff ff 	mov    -0x250(%rbp,%rax,4),%eax
    2e41:	89 85 10 fc ff ff    	mov    %eax,-0x3f0(%rbp)
    2e47:	8b 85 04 fc ff ff    	mov    -0x3fc(%rbp),%eax
    2e4d:	89 85 14 fc ff ff    	mov    %eax,-0x3ec(%rbp)
    2e53:	eb 01                	jmp    2e56 <libkdump_window_measure+0x484>
    2e55:	90                   	nop
    2e56:	83 85 04 fc ff ff 01 	addl   $0x1,-0x3fc(%rbp)
    2e5d:	81 bd 04 fc ff ff 90 	cmpl   $0x90,-0x3fc(%rbp)
    2e64:	00 00 00 
    2e67:	0f 8e 62 ff ff ff    	jle    2dcf <libkdump_window_measure+0x3fd>
    2e6d:	8b 85 14 fc ff ff    	mov    -0x3ec(%rbp),%eax
    2e73:	48 8b 4d f8          	mov    -0x8(%rbp),%rcx
    2e77:	64 48 33 0c 25 28 00 	xor    %fs:0x28,%rcx
    2e7e:	00 00 
    2e80:	74 05                	je     2e87 <libkdump_window_measure+0x4b5>
    2e82:	e8 00 00 00 00       	callq  2e87 <libkdump_window_measure+0x4b5>
    2e87:	c9                   	leaveq 
    2e88:	c3                   	retq   

0000000000002e89 <libkdump_prefetch_read>:
    2e89:	55                   	push   %rbp
    2e8a:	48 89 e5             	mov    %rsp,%rbp
    2e8d:	48 81 ec 40 01 00 00 	sub    $0x140,%rsp
    2e94:	48 89 bd d8 fe ff ff 	mov    %rdi,-0x128(%rbp)
    2e9b:	48 89 b5 d0 fe ff ff 	mov    %rsi,-0x130(%rbp)
    2ea2:	89 95 cc fe ff ff    	mov    %edx,-0x134(%rbp)
    2ea8:	89 8d c8 fe ff ff    	mov    %ecx,-0x138(%rbp)
    2eae:	44 89 85 c4 fe ff ff 	mov    %r8d,-0x13c(%rbp)
    2eb5:	64 48 8b 04 25 28 00 	mov    %fs:0x28,%rax
    2ebc:	00 00 
    2ebe:	48 89 45 f8          	mov    %rax,-0x8(%rbp)
    2ec2:	31 c0                	xor    %eax,%eax
    2ec4:	48 8b 85 d8 fe ff ff 	mov    -0x128(%rbp),%rax
    2ecb:	48 89 05 00 00 00 00 	mov    %rax,0x0(%rip)        # 2ed2 <libkdump_prefetch_read+0x49>
    2ed2:	48 8b 85 d8 fe ff ff 	mov    -0x128(%rbp),%rax
    2ed9:	48 89 c7             	mov    %rax,%rdi
    2edc:	e8 00 00 00 00       	callq  2ee1 <libkdump_prefetch_read+0x58>
    2ee1:	c7 85 e0 fe ff ff 00 	movl   $0x0,-0x120(%rbp)
    2ee8:	00 00 00 
    2eeb:	eb 17                	jmp    2f04 <libkdump_prefetch_read+0x7b>
    2eed:	8b 85 e0 fe ff ff    	mov    -0x120(%rbp),%eax
    2ef3:	48 98                	cltq   
    2ef5:	c6 84 05 f0 fe ff ff 	movb   $0x0,-0x110(%rbp,%rax,1)
    2efc:	00 
    2efd:	83 85 e0 fe ff ff 01 	addl   $0x1,-0x120(%rbp)
    2f04:	81 bd e0 fe ff ff ff 	cmpl   $0xff,-0x120(%rbp)
    2f0b:	00 00 00 
    2f0e:	7e dd                	jle    2eed <libkdump_prefetch_read+0x64>
    2f10:	c7 85 e0 fe ff ff 00 	movl   $0x0,-0x120(%rbp)
    2f17:	00 00 00 
    2f1a:	eb 75                	jmp    2f91 <libkdump_prefetch_read+0x108>
    2f1c:	8b 05 00 00 00 00    	mov    0x0(%rip),%eax        # 2f22 <libkdump_prefetch_read+0x99>
    2f22:	83 f8 01             	cmp    $0x1,%eax
    2f25:	75 12                	jne    2f39 <libkdump_prefetch_read+0xb0>
    2f27:	b8 00 00 00 00       	mov    $0x0,%eax
    2f2c:	e8 00 00 00 00       	callq  2f31 <libkdump_prefetch_read+0xa8>
    2f31:	89 85 e4 fe ff ff    	mov    %eax,-0x11c(%rbp)
    2f37:	eb 2d                	jmp    2f66 <libkdump_prefetch_read+0xdd>
    2f39:	48 8b 85 d0 fe ff ff 	mov    -0x130(%rbp),%rax
    2f40:	8b 8d c4 fe ff ff    	mov    -0x13c(%rbp),%ecx
    2f46:	8b 95 c8 fe ff ff    	mov    -0x138(%rbp),%edx
    2f4c:	8b b5 cc fe ff ff    	mov    -0x134(%rbp),%esi
    2f52:	41 b8 00 00 00 00    	mov    $0x0,%r8d
    2f58:	48 89 c7             	mov    %rax,%rdi
    2f5b:	e8 00 00 00 00       	callq  2f60 <libkdump_prefetch_read+0xd7>
    2f60:	89 85 e4 fe ff ff    	mov    %eax,-0x11c(%rbp)
    2f66:	8b 85 e4 fe ff ff    	mov    -0x11c(%rbp),%eax
    2f6c:	48 98                	cltq   
    2f6e:	0f b6 84 05 f0 fe ff 	movzbl -0x110(%rbp,%rax,1),%eax
    2f75:	ff 
    2f76:	83 c0 01             	add    $0x1,%eax
    2f79:	89 c2                	mov    %eax,%edx
    2f7b:	8b 85 e4 fe ff ff    	mov    -0x11c(%rbp),%eax
    2f81:	48 98                	cltq   
    2f83:	88 94 05 f0 fe ff ff 	mov    %dl,-0x110(%rbp,%rax,1)
    2f8a:	83 85 e0 fe ff ff 01 	addl   $0x1,-0x120(%rbp)
    2f91:	8b 05 00 00 00 00    	mov    0x0(%rip),%eax        # 2f97 <libkdump_prefetch_read+0x10e>
    2f97:	3b 85 e0 fe ff ff    	cmp    -0x120(%rbp),%eax
    2f9d:	0f 8f 79 ff ff ff    	jg     2f1c <libkdump_prefetch_read+0x93>
    2fa3:	c7 85 e8 fe ff ff 00 	movl   $0x0,-0x118(%rbp)
    2faa:	00 00 00 
    2fad:	c7 85 ec fe ff ff 00 	movl   $0x0,-0x114(%rbp)
    2fb4:	00 00 00 
    2fb7:	8b 05 00 00 00 00    	mov    0x0(%rip),%eax        # 2fbd <libkdump_prefetch_read+0x134>
    2fbd:	85 c0                	test   %eax,%eax
    2fbf:	74 6a                	je     302b <libkdump_prefetch_read+0x1a2>
    2fc1:	c7 85 e0 fe ff ff 00 	movl   $0x0,-0x120(%rbp)
    2fc8:	00 00 00 
    2fcb:	eb 51                	jmp    301e <libkdump_prefetch_read+0x195>
    2fcd:	8b 85 e0 fe ff ff    	mov    -0x120(%rbp),%eax
    2fd3:	48 98                	cltq   
    2fd5:	0f b6 84 05 f0 fe ff 	movzbl -0x110(%rbp,%rax,1),%eax
    2fdc:	ff 
    2fdd:	84 c0                	test   %al,%al
    2fdf:	74 35                	je     3016 <libkdump_prefetch_read+0x18d>
    2fe1:	8b 85 e0 fe ff ff    	mov    -0x120(%rbp),%eax
    2fe7:	48 98                	cltq   
    2fe9:	0f b6 84 05 f0 fe ff 	movzbl -0x110(%rbp,%rax,1),%eax
    2ff0:	ff 
    2ff1:	0f be d0             	movsbl %al,%edx
    2ff4:	8b 85 e0 fe ff ff    	mov    -0x120(%rbp),%eax
    2ffa:	89 d1                	mov    %edx,%ecx
    2ffc:	89 c2                	mov    %eax,%edx
    2ffe:	48 8d 35 00 00 00 00 	lea    0x0(%rip),%rsi        # 3005 <libkdump_prefetch_read+0x17c>
    3005:	bf 01 00 00 00       	mov    $0x1,%edi
    300a:	b8 00 00 00 00       	mov    $0x0,%eax
    300f:	e8 5c d4 ff ff       	callq  470 <debug>
    3014:	eb 01                	jmp    3017 <libkdump_prefetch_read+0x18e>
    3016:	90                   	nop
    3017:	83 85 e0 fe ff ff 01 	addl   $0x1,-0x120(%rbp)
    301e:	8b 85 e0 fe ff ff    	mov    -0x120(%rbp),%eax
    3024:	3d ff 00 00 00       	cmp    $0xff,%eax
    3029:	76 a2                	jbe    2fcd <libkdump_prefetch_read+0x144>
    302b:	c7 85 e0 fe ff ff 01 	movl   $0x1,-0x120(%rbp)
    3032:	00 00 00 
    3035:	eb 64                	jmp    309b <libkdump_prefetch_read+0x212>
    3037:	8b 85 e0 fe ff ff    	mov    -0x120(%rbp),%eax
    303d:	48 98                	cltq   
    303f:	0f b6 84 05 f0 fe ff 	movzbl -0x110(%rbp,%rax,1),%eax
    3046:	ff 
    3047:	0f be c0             	movsbl %al,%eax
    304a:	3b 85 e8 fe ff ff    	cmp    -0x118(%rbp),%eax
    3050:	7e 42                	jle    3094 <libkdump_prefetch_read+0x20b>
    3052:	8b 85 e0 fe ff ff    	mov    -0x120(%rbp),%eax
    3058:	48 98                	cltq   
    305a:	0f b6 84 05 f0 fe ff 	movzbl -0x110(%rbp,%rax,1),%eax
    3061:	ff 
    3062:	0f be d0             	movsbl %al,%edx
    3065:	8b 05 00 00 00 00    	mov    0x0(%rip),%eax        # 306b <libkdump_prefetch_read+0x1e2>
    306b:	39 c2                	cmp    %eax,%edx
    306d:	7c 25                	jl     3094 <libkdump_prefetch_read+0x20b>
    306f:	8b 85 e0 fe ff ff    	mov    -0x120(%rbp),%eax
    3075:	48 98                	cltq   
    3077:	0f b6 84 05 f0 fe ff 	movzbl -0x110(%rbp,%rax,1),%eax
    307e:	ff 
    307f:	0f be c0             	movsbl %al,%eax
    3082:	89 85 e8 fe ff ff    	mov    %eax,-0x118(%rbp)
    3088:	8b 85 e0 fe ff ff    	mov    -0x120(%rbp),%eax
    308e:	89 85 ec fe ff ff    	mov    %eax,-0x114(%rbp)
    3094:	83 85 e0 fe ff ff 01 	addl   $0x1,-0x120(%rbp)
    309b:	81 bd e0 fe ff ff ff 	cmpl   $0xff,-0x120(%rbp)
    30a2:	00 00 00 
    30a5:	7e 90                	jle    3037 <libkdump_prefetch_read+0x1ae>
    30a7:	8b 85 ec fe ff ff    	mov    -0x114(%rbp),%eax
    30ad:	48 8b 7d f8          	mov    -0x8(%rbp),%rdi
    30b1:	64 48 33 3c 25 28 00 	xor    %fs:0x28,%rdi
    30b8:	00 00 
    30ba:	74 05                	je     30c1 <libkdump_prefetch_read+0x238>
    30bc:	e8 00 00 00 00       	callq  30c1 <libkdump_prefetch_read+0x238>
    30c1:	c9                   	leaveq 
    30c2:	c3                   	retq   

00000000000030c3 <dummy_branch_meltdown_standard>:
    30c3:	55                   	push   %rbp
    30c4:	48 89 e5             	mov    %rsp,%rbp
    30c7:	4d 8b 1b             	mov    (%r11),%r11
    30ca:	4f 8b 1c 1a          	mov    (%r10,%r11,1),%r11
    30ce:	49 83 c3 01          	add    $0x1,%r11
    30d2:	49 83 eb 01          	sub    $0x1,%r11
    30d6:	90                   	nop
    30d7:	90                   	nop
    30d8:	5d                   	pop    %rbp
    30d9:	c3                   	retq   

00000000000030da <dummy_branch_meltdown_cr>:
    30da:	55                   	push   %rbp
    30db:	48 89 e5             	mov    %rsp,%rbp
    30de:	41 0f 20 e3          	mov    %cr4,%r11
    30e2:	49 81 e3 ff 00 00 00 	and    $0xff,%r11
    30e9:	49 c1 e3 0c          	shl    $0xc,%r11
    30ed:	4f 8b 1c 1a          	mov    (%r10,%r11,1),%r11
    30f1:	90                   	nop
    30f2:	5d                   	pop    %rbp
    30f3:	c3                   	retq   

00000000000030f4 <dummy_branch_meltdown_msr>:
    30f4:	55                   	push   %rbp
    30f5:	48 89 e5             	mov    %rsp,%rbp
    30f8:	48 c7 c1 a2 01 00 00 	mov    $0x1a2,%rcx
    30ff:	0f 32                	rdmsr  
    3101:	48 25 00 00 ff 00    	and    $0xff0000,%rax
    3107:	48 c1 e8 04          	shr    $0x4,%rax
    310b:	49 89 c3             	mov    %rax,%r11
    310e:	4f 8b 1c 1a          	mov    (%r10,%r11,1),%r11
    3112:	90                   	nop
    3113:	5d                   	pop    %rbp
    3114:	c3                   	retq   

0000000000003115 <dummy_branch_meltdown_xmm_load>:
    3115:	55                   	push   %rbp
    3116:	48 89 e5             	mov    %rsp,%rbp
    3119:	66 49 0f 7e c3       	movq   %xmm0,%r11
    311e:	4f 8b 1c 1a          	mov    (%r10,%r11,1),%r11
    3122:	90                   	nop
    3123:	5d                   	pop    %rbp
    3124:	c3                   	retq   

0000000000003125 <dummy_branch_meltdown_xmm_wait>:
    3125:	55                   	push   %rbp
    3126:	48 89 e5             	mov    %rsp,%rbp
    3129:	9b                   	fwait
    312a:	66 49 0f 7e c3       	movq   %xmm0,%r11
    312f:	4f 8b 1c 1a          	mov    (%r10,%r11,1),%r11
    3133:	90                   	nop
    3134:	5d                   	pop    %rbp
    3135:	c3                   	retq   

0000000000003136 <libkdump_insert_speculative_instruction>:
    3136:	55                   	push   %rbp
    3137:	48 89 e5             	mov    %rsp,%rbp
    313a:	48 83 ec 30          	sub    $0x30,%rsp
    313e:	89 7d dc             	mov    %edi,-0x24(%rbp)
    3141:	89 75 d8             	mov    %esi,-0x28(%rbp)
    3144:	48 89 55 d0          	mov    %rdx,-0x30(%rbp)
    3148:	48 8b 45 d0          	mov    -0x30(%rbp),%rax
    314c:	48 89 45 f8          	mov    %rax,-0x8(%rbp)
    3150:	83 7d dc 05          	cmpl   $0x5,-0x24(%rbp)
    3154:	77 6a                	ja     31c0 <libkdump_insert_speculative_instruction+0x8a>
    3156:	8b 45 dc             	mov    -0x24(%rbp),%eax
    3159:	48 8d 14 85 00 00 00 	lea    0x0(,%rax,4),%rdx
    3160:	00 
    3161:	48 8d 05 00 00 00 00 	lea    0x0(%rip),%rax        # 3168 <libkdump_insert_speculative_instruction+0x32>
    3168:	8b 04 02             	mov    (%rdx,%rax,1),%eax
    316b:	48 63 d0             	movslq %eax,%rdx
    316e:	48 8d 05 00 00 00 00 	lea    0x0(%rip),%rax        # 3175 <libkdump_insert_speculative_instruction+0x3f>
    3175:	48 01 d0             	add    %rdx,%rax
    3178:	ff e0                	jmpq   *%rax
    317a:	48 8b 45 f8          	mov    -0x8(%rbp),%rax
    317e:	48 83 c0 07          	add    $0x7,%rax
    3182:	48 89 45 f0          	mov    %rax,-0x10(%rbp)
    3186:	eb 39                	jmp    31c1 <libkdump_insert_speculative_instruction+0x8b>
    3188:	48 8b 45 f8          	mov    -0x8(%rbp),%rax
    318c:	48 83 c0 1d          	add    $0x1d,%rax
    3190:	48 89 45 f0          	mov    %rax,-0x10(%rbp)
    3194:	eb 2b                	jmp    31c1 <libkdump_insert_speculative_instruction+0x8b>
    3196:	48 8b 45 f8          	mov    -0x8(%rbp),%rax
    319a:	48 83 c0 21          	add    $0x21,%rax
    319e:	48 89 45 f0          	mov    %rax,-0x10(%rbp)
    31a2:	eb 1d                	jmp    31c1 <libkdump_insert_speculative_instruction+0x8b>
    31a4:	48 8b 45 f8          	mov    -0x8(%rbp),%rax
    31a8:	48 83 c0 20          	add    $0x20,%rax
    31ac:	48 89 45 f0          	mov    %rax,-0x10(%rbp)
    31b0:	eb 0f                	jmp    31c1 <libkdump_insert_speculative_instruction+0x8b>
    31b2:	48 8b 45 f8          	mov    -0x8(%rbp),%rax
    31b6:	48 83 c0 20          	add    $0x20,%rax
    31ba:	48 89 45 f0          	mov    %rax,-0x10(%rbp)
    31be:	eb 01                	jmp    31c1 <libkdump_insert_speculative_instruction+0x8b>
    31c0:	90                   	nop
    31c1:	8b 45 d8             	mov    -0x28(%rbp),%eax
    31c4:	99                   	cltd   
    31c5:	c1 ea 1f             	shr    $0x1f,%edx
    31c8:	01 d0                	add    %edx,%eax
    31ca:	83 e0 01             	and    $0x1,%eax
    31cd:	29 d0                	sub    %edx,%eax
    31cf:	83 f8 01             	cmp    $0x1,%eax
    31d2:	75 19                	jne    31ed <libkdump_insert_speculative_instruction+0xb7>
    31d4:	48 c7 45 e8 04 00 00 	movq   $0x4,-0x18(%rbp)
    31db:	00 
    31dc:	48 8b 05 00 00 00 00 	mov    0x0(%rip),%rax        # 31e3 <libkdump_insert_speculative_instruction+0xad>
    31e3:	48 83 c0 0b          	add    $0xb,%rax
    31e7:	48 89 45 e0          	mov    %rax,-0x20(%rbp)
    31eb:	eb 17                	jmp    3204 <libkdump_insert_speculative_instruction+0xce>
    31ed:	48 c7 45 e8 04 00 00 	movq   $0x4,-0x18(%rbp)
    31f4:	00 
    31f5:	48 8b 05 00 00 00 00 	mov    0x0(%rip),%rax        # 31fc <libkdump_insert_speculative_instruction+0xc6>
    31fc:	48 83 c0 0f          	add    $0xf,%rax
    3200:	48 89 45 e0          	mov    %rax,-0x20(%rbp)
    3204:	8b 45 d8             	mov    -0x28(%rbp),%eax
    3207:	83 c0 01             	add    $0x1,%eax
    320a:	89 c2                	mov    %eax,%edx
    320c:	c1 ea 1f             	shr    $0x1f,%edx
    320f:	01 d0                	add    %edx,%eax
    3211:	d1 f8                	sar    %eax
    3213:	89 c1                	mov    %eax,%ecx
    3215:	8b 45 d8             	mov    -0x28(%rbp),%eax
    3218:	89 c2                	mov    %eax,%edx
    321a:	c1 ea 1f             	shr    $0x1f,%edx
    321d:	01 d0                	add    %edx,%eax
    321f:	d1 f8                	sar    %eax
    3221:	01 c8                	add    %ecx,%eax
    3223:	83 e8 01             	sub    $0x1,%eax
    3226:	c1 e0 02             	shl    $0x2,%eax
    3229:	48 98                	cltq   
    322b:	48 01 45 f0          	add    %rax,-0x10(%rbp)
    322f:	48 8b 45 f0          	mov    -0x10(%rbp),%rax
    3233:	48 2b 45 e8          	sub    -0x18(%rbp),%rax
    3237:	48 89 45 f8          	mov    %rax,-0x8(%rbp)
    323b:	48 8b 55 f8          	mov    -0x8(%rbp),%rdx
    323f:	48 8b 45 f0          	mov    -0x10(%rbp),%rax
    3243:	8b 12                	mov    (%rdx),%edx
    3245:	89 10                	mov    %edx,(%rax)
    3247:	48 8b 4d e0          	mov    -0x20(%rbp),%rcx
    324b:	48 8b 45 f8          	mov    -0x8(%rbp),%rax
    324f:	48 8b 55 e8          	mov    -0x18(%rbp),%rdx
    3253:	48 89 ce             	mov    %rcx,%rsi
    3256:	48 89 c7             	mov    %rax,%rdi
    3259:	e8 00 00 00 00       	callq  325e <libkdump_insert_speculative_instruction+0x128>
    325e:	90                   	nop
    325f:	c9                   	leaveq 
    3260:	c3                   	retq   

0000000000003261 <libkdump_select_branch_code_sequence>:
    3261:	55                   	push   %rbp
    3262:	48 89 e5             	mov    %rsp,%rbp
    3265:	48 83 ec 20          	sub    $0x20,%rsp
    3269:	89 7d ec             	mov    %edi,-0x14(%rbp)
    326c:	48 89 75 e0          	mov    %rsi,-0x20(%rbp)
    3270:	83 7d ec 05          	cmpl   $0x5,-0x14(%rbp)
    3274:	0f 87 99 00 00 00    	ja     3313 <libkdump_select_branch_code_sequence+0xb2>
    327a:	8b 45 ec             	mov    -0x14(%rbp),%eax
    327d:	48 8d 14 85 00 00 00 	lea    0x0(,%rax,4),%rdx
    3284:	00 
    3285:	48 8d 05 00 00 00 00 	lea    0x0(%rip),%rax        # 328c <libkdump_select_branch_code_sequence+0x2b>
    328c:	8b 04 02             	mov    (%rdx,%rax,1),%eax
    328f:	48 63 d0             	movslq %eax,%rdx
    3292:	48 8d 05 00 00 00 00 	lea    0x0(%rip),%rax        # 3299 <libkdump_select_branch_code_sequence+0x38>
    3299:	48 01 d0             	add    %rdx,%rax
    329c:	ff e0                	jmpq   *%rax
    329e:	48 8b 05 00 00 00 00 	mov    0x0(%rip),%rax        # 32a5 <libkdump_select_branch_code_sequence+0x44>
    32a5:	48 83 c0 04          	add    $0x4,%rax
    32a9:	48 89 45 f0          	mov    %rax,-0x10(%rbp)
    32ad:	48 c7 45 f8 07 00 00 	movq   $0x7,-0x8(%rbp)
    32b4:	00 
    32b5:	eb 5d                	jmp    3314 <libkdump_select_branch_code_sequence+0xb3>
    32b7:	48 8b 05 00 00 00 00 	mov    0x0(%rip),%rax        # 32be <libkdump_select_branch_code_sequence+0x5d>
    32be:	48 83 c0 04          	add    $0x4,%rax
    32c2:	48 89 45 f0          	mov    %rax,-0x10(%rbp)
    32c6:	48 c7 45 f8 13 00 00 	movq   $0x13,-0x8(%rbp)
    32cd:	00 
    32ce:	48 8b 05 00 00 00 00 	mov    0x0(%rip),%rax        # 32d5 <libkdump_select_branch_code_sequence+0x74>
    32d5:	48 83 c0 04          	add    $0x4,%rax
    32d9:	48 89 45 f0          	mov    %rax,-0x10(%rbp)
    32dd:	48 c7 45 f8 1a 00 00 	movq   $0x1a,-0x8(%rbp)
    32e4:	00 
    32e5:	48 8b 05 00 00 00 00 	mov    0x0(%rip),%rax        # 32ec <libkdump_select_branch_code_sequence+0x8b>
    32ec:	48 83 c0 04          	add    $0x4,%rax
    32f0:	48 89 45 f0          	mov    %rax,-0x10(%rbp)
    32f4:	48 c7 45 f8 09 00 00 	movq   $0x9,-0x8(%rbp)
    32fb:	00 
    32fc:	48 8b 05 00 00 00 00 	mov    0x0(%rip),%rax        # 3303 <libkdump_select_branch_code_sequence+0xa2>
    3303:	48 83 c0 04          	add    $0x4,%rax
    3307:	48 89 45 f0          	mov    %rax,-0x10(%rbp)
    330b:	48 c7 45 f8 0a 00 00 	movq   $0xa,-0x8(%rbp)
    3312:	00 
    3313:	90                   	nop
    3314:	48 83 7d f8 00       	cmpq   $0x0,-0x8(%rbp)
    3319:	74 17                	je     3332 <libkdump_select_branch_code_sequence+0xd1>
    331b:	48 8b 4d f0          	mov    -0x10(%rbp),%rcx
    331f:	48 8b 55 f8          	mov    -0x8(%rbp),%rdx
    3323:	48 8b 45 e0          	mov    -0x20(%rbp),%rax
    3327:	48 89 ce             	mov    %rcx,%rsi
    332a:	48 89 c7             	mov    %rax,%rdi
    332d:	e8 00 00 00 00       	callq  3332 <libkdump_select_branch_code_sequence+0xd1>
    3332:	90                   	nop
    3333:	c9                   	leaveq 
    3334:	c3                   	retq   

0000000000003335 <readMemoryByte>:
    3335:	55                   	push   %rbp
    3336:	48 89 e5             	mov    %rsp,%rbp
    3339:	48 81 ec d0 00 00 00 	sub    $0xd0,%rsp
    3340:	48 89 bd 68 ff ff ff 	mov    %rdi,-0x98(%rbp)
    3347:	48 89 b5 60 ff ff ff 	mov    %rsi,-0xa0(%rbp)
    334e:	48 89 95 58 ff ff ff 	mov    %rdx,-0xa8(%rbp)
    3355:	48 89 8d 50 ff ff ff 	mov    %rcx,-0xb0(%rbp)
    335c:	4c 89 85 48 ff ff ff 	mov    %r8,-0xb8(%rbp)
    3363:	44 89 8d 44 ff ff ff 	mov    %r9d,-0xbc(%rbp)
    336a:	48 8b 45 20          	mov    0x20(%rbp),%rax
    336e:	48 89 85 38 ff ff ff 	mov    %rax,-0xc8(%rbp)
    3375:	64 48 8b 04 25 28 00 	mov    %fs:0x28,%rax
    337c:	00 00 
    337e:	48 89 45 f8          	mov    %rax,-0x8(%rbp)
    3382:	31 c0                	xor    %eax,%eax
    3384:	c7 45 80 00 00 00 00 	movl   $0x0,-0x80(%rbp)
    338b:	c7 45 e0 00 00 00 00 	movl   $0x0,-0x20(%rbp)
    3392:	c7 45 e4 00 00 00 00 	movl   $0x0,-0x1c(%rbp)
    3399:	c7 45 e8 00 00 00 00 	movl   $0x0,-0x18(%rbp)
    33a0:	48 83 bd 38 ff ff ff 	cmpq   $0x0,-0xc8(%rbp)
    33a7:	00 
    33a8:	74 1b                	je     33c5 <readMemoryByte+0x90>
    33aa:	48 8d 15 2b 02 00 00 	lea    0x22b(%rip),%rdx        # 35dc <readMemoryByte+0x2a7>
    33b1:	48 8b 85 38 ff ff ff 	mov    -0xc8(%rbp),%rax
    33b8:	48 89 10             	mov    %rdx,(%rax)
    33bb:	b8 ff ff ff ff       	mov    $0xffffffff,%eax
    33c0:	e9 27 07 00 00       	jmpq   3aec <TO_ADDR_END+0x295>
    33c5:	c7 85 78 ff ff ff 00 	movl   $0x0,-0x88(%rbp)
    33cc:	00 00 00 
    33cf:	eb 25                	jmp    33f6 <readMemoryByte+0xc1>
    33d1:	8b 85 78 ff ff ff    	mov    -0x88(%rbp),%eax
    33d7:	48 98                	cltq   
    33d9:	48 8d 14 85 00 00 00 	lea    0x0(,%rax,4),%rdx
    33e0:	00 
    33e1:	48 8d 05 00 00 00 00 	lea    0x0(%rip),%rax        # 33e8 <readMemoryByte+0xb3>
    33e8:	c7 04 02 00 00 00 00 	movl   $0x0,(%rdx,%rax,1)
    33ef:	83 85 78 ff ff ff 01 	addl   $0x1,-0x88(%rbp)
    33f6:	81 bd 78 ff ff ff ff 	cmpl   $0xff,-0x88(%rbp)
    33fd:	00 00 00 
    3400:	7e cf                	jle    33d1 <readMemoryByte+0x9c>
    3402:	c7 85 78 ff ff ff 00 	movl   $0x0,-0x88(%rbp)
    3409:	00 00 00 
    340c:	eb 24                	jmp    3432 <readMemoryByte+0xfd>
    340e:	48 8b 15 00 00 00 00 	mov    0x0(%rip),%rdx        # 3415 <readMemoryByte+0xe0>
    3415:	8b 85 78 ff ff ff    	mov    -0x88(%rbp),%eax
    341b:	c1 e0 0c             	shl    $0xc,%eax
    341e:	48 98                	cltq   
    3420:	48 01 d0             	add    %rdx,%rax
    3423:	48 89 c7             	mov    %rax,%rdi
    3426:	e8 8b d3 ff ff       	callq  7b6 <flush>
    342b:	83 85 78 ff ff ff 01 	addl   $0x1,-0x88(%rbp)
    3432:	81 bd 78 ff ff ff ff 	cmpl   $0xff,-0x88(%rbp)
    3439:	00 00 00 
    343c:	7e d0                	jle    340e <readMemoryByte+0xd9>
    343e:	8b 05 00 00 00 00    	mov    0x0(%rip),%eax        # 3444 <readMemoryByte+0x10f>
    3444:	89 85 7c ff ff ff    	mov    %eax,-0x84(%rbp)
    344a:	e9 c2 05 00 00       	jmpq   3a11 <TO_ADDR_END+0x1ba>
    344f:	48 8b 05 00 00 00 00 	mov    0x0(%rip),%rax        # 3456 <readMemoryByte+0x121>
    3456:	48 8b 30             	mov    (%rax),%rsi
    3459:	8b 8d 7c ff ff ff    	mov    -0x84(%rbp),%ecx
    345f:	ba ab aa aa 2a       	mov    $0x2aaaaaab,%edx
    3464:	89 c8                	mov    %ecx,%eax
    3466:	f7 ea                	imul   %edx
    3468:	89 c8                	mov    %ecx,%eax
    346a:	c1 f8 1f             	sar    $0x1f,%eax
    346d:	29 c2                	sub    %eax,%edx
    346f:	89 d0                	mov    %edx,%eax
    3471:	01 c0                	add    %eax,%eax
    3473:	01 d0                	add    %edx,%eax
    3475:	01 c0                	add    %eax,%eax
    3477:	29 c1                	sub    %eax,%ecx
    3479:	89 ca                	mov    %ecx,%edx
    347b:	8d 42 ff             	lea    -0x1(%rdx),%eax
    347e:	66 b8 00 00          	mov    $0x0,%ax
    3482:	48 98                	cltq   
    3484:	48 89 06             	mov    %rax,(%rsi)
    3487:	48 8b 05 00 00 00 00 	mov    0x0(%rip),%rax        # 348e <readMemoryByte+0x159>
    348e:	48 8b 00             	mov    (%rax),%rax
    3491:	48 8b 15 00 00 00 00 	mov    0x0(%rip),%rdx        # 3498 <readMemoryByte+0x163>
    3498:	48 8b 12             	mov    (%rdx),%rdx
    349b:	48 8b 0a             	mov    (%rdx),%rcx
    349e:	48 8b 15 00 00 00 00 	mov    0x0(%rip),%rdx        # 34a5 <readMemoryByte+0x170>
    34a5:	48 8b 12             	mov    (%rdx),%rdx
    34a8:	48 8b 12             	mov    (%rdx),%rdx
    34ab:	48 c1 ea 10          	shr    $0x10,%rdx
    34af:	48 09 ca             	or     %rcx,%rdx
    34b2:	48 89 10             	mov    %rdx,(%rax)
    34b5:	48 8b 05 00 00 00 00 	mov    0x0(%rip),%rax        # 34bc <readMemoryByte+0x187>
    34bc:	48 8b 00             	mov    (%rax),%rax
    34bf:	48 8b 00             	mov    (%rax),%rax
    34c2:	48 f7 d0             	not    %rax
    34c5:	48 23 85 68 ff ff ff 	and    -0x98(%rbp),%rax
    34cc:	48 89 c2             	mov    %rax,%rdx
    34cf:	48 8b 05 00 00 00 00 	mov    0x0(%rip),%rax        # 34d6 <readMemoryByte+0x1a1>
    34d6:	48 8b 00             	mov    (%rax),%rax
    34d9:	48 8b 00             	mov    (%rax),%rax
    34dc:	48 23 85 60 ff ff ff 	and    -0xa0(%rbp),%rax
    34e3:	48 89 c1             	mov    %rax,%rcx
    34e6:	48 8b 05 00 00 00 00 	mov    0x0(%rip),%rax        # 34ed <readMemoryByte+0x1b8>
    34ed:	48 8b 00             	mov    (%rax),%rax
    34f0:	48 8b 00             	mov    (%rax),%rax
    34f3:	48 f7 d0             	not    %rax
    34f6:	25 08 02 00 00       	and    $0x208,%eax
    34fb:	48 01 c8             	add    %rcx,%rax
    34fe:	48 09 d0             	or     %rdx,%rax
    3501:	48 89 45 98          	mov    %rax,-0x68(%rbp)
    3505:	48 8b 05 00 00 00 00 	mov    0x0(%rip),%rax        # 350c <readMemoryByte+0x1d7>
    350c:	48 8b 00             	mov    (%rax),%rax
    350f:	48 8b 00             	mov    (%rax),%rax
    3512:	25 00 02 00 00       	and    $0x200,%eax
    3517:	48 89 c2             	mov    %rax,%rdx
    351a:	48 8b 05 00 00 00 00 	mov    0x0(%rip),%rax        # 3521 <readMemoryByte+0x1ec>
    3521:	48 8b 00             	mov    (%rax),%rax
    3524:	48 8b 00             	mov    (%rax),%rax
    3527:	48 f7 d0             	not    %rax
    352a:	25 00 08 00 00       	and    $0x800,%eax
    352f:	48 09 d0             	or     %rdx,%rax
    3532:	48 89 45 a0          	mov    %rax,-0x60(%rbp)
    3536:	48 8b 05 00 00 00 00 	mov    0x0(%rip),%rax        # 353d <readMemoryByte+0x208>
    353d:	48 8b 00             	mov    (%rax),%rax
    3540:	48 8b 95 60 ff ff ff 	mov    -0xa0(%rbp),%rdx
    3547:	48 89 10             	mov    %rdx,(%rax)
    354a:	48 8b 05 00 00 00 00 	mov    0x0(%rip),%rax        # 3551 <readMemoryByte+0x21c>
    3551:	48 8b 00             	mov    (%rax),%rax
    3554:	48 89 c7             	mov    %rax,%rdi
    3557:	e8 5a d2 ff ff       	callq  7b6 <flush>
    355c:	48 8b 05 00 00 00 00 	mov    0x0(%rip),%rax        # 3563 <readMemoryByte+0x22e>
    3563:	48 8b 00             	mov    (%rax),%rax
    3566:	48 89 c7             	mov    %rax,%rdi
    3569:	e8 48 d2 ff ff       	callq  7b6 <flush>
    356e:	48 8b 05 00 00 00 00 	mov    0x0(%rip),%rax        # 3575 <readMemoryByte+0x240>
    3575:	48 8b 00             	mov    (%rax),%rax
    3578:	48 89 c7             	mov    %rax,%rdi
    357b:	e8 36 d2 ff ff       	callq  7b6 <flush>
    3580:	48 8b 05 00 00 00 00 	mov    0x0(%rip),%rax        # 3587 <readMemoryByte+0x252>
    3587:	48 8b 00             	mov    (%rax),%rax
    358a:	48 89 c7             	mov    %rax,%rdi
    358d:	e8 24 d2 ff ff       	callq  7b6 <flush>
    3592:	48 8b 05 00 00 00 00 	mov    0x0(%rip),%rax        # 3599 <readMemoryByte+0x264>
    3599:	48 8b 00             	mov    (%rax),%rax
    359c:	48 89 c7             	mov    %rax,%rdi
    359f:	e8 12 d2 ff ff       	callq  7b6 <flush>
    35a4:	b8 00 00 00 00       	mov    $0x0,%eax
    35a9:	e8 00 00 00 00       	callq  35ae <readMemoryByte+0x279>
    35ae:	8b 8d 44 ff ff ff    	mov    -0xbc(%rbp),%ecx
    35b4:	48 8b 85 68 ff ff ff 	mov    -0x98(%rbp),%rax
    35bb:	8b 55 10             	mov    0x10(%rbp),%edx
    35be:	89 ce                	mov    %ecx,%esi
    35c0:	48 89 c7             	mov    %rax,%rdi
    35c3:	e8 00 00 00 00       	callq  35c8 <readMemoryByte+0x293>
    35c8:	48 8d 3d 00 00 00 00 	lea    0x0(%rip),%rdi        # 35cf <readMemoryByte+0x29a>
    35cf:	e8 00 00 00 00       	callq  35d4 <readMemoryByte+0x29f>
    35d4:	85 c0                	test   %eax,%eax
    35d6:	0f 85 7c 02 00 00    	jne    3858 <TO_ADDR_END+0x1>
    35dc:	48 8b 05 00 00 00 00 	mov    0x0(%rip),%rax        # 35e3 <readMemoryByte+0x2ae>
    35e3:	48 8b 15 00 00 00 00 	mov    0x0(%rip),%rdx        # 35ea <readMemoryByte+0x2b5>
    35ea:	48 8b 12             	mov    (%rdx),%rdx
    35ed:	48 8b 8d 60 ff ff ff 	mov    -0xa0(%rbp),%rcx
    35f4:	49 89 cb             	mov    %rcx,%r11
    35f7:	49 89 c2             	mov    %rax,%r10
    35fa:	49 c7 c1 01 00 00 00 	mov    $0x1,%r9
    3601:	0f ae f0             	mfence 
    3604:	4d 8b 09             	mov    (%r9),%r9
    3607:	4d 8b 09             	mov    (%r9),%r9
    360a:	4d 8b 09             	mov    (%r9),%r9
    360d:	4d 8b 09             	mov    (%r9),%r9

0000000000003610 <TO_ADDR>:
    3610:	4d 8b 1b             	mov    (%r11),%r11
    3613:	4f 8b 1c 1a          	mov    (%r10,%r11,1),%r11
    3617:	49 83 c3 01          	add    $0x1,%r11
    361b:	49 83 eb 01          	sub    $0x1,%r11
    361f:	49 83 c3 01          	add    $0x1,%r11
    3623:	49 83 eb 01          	sub    $0x1,%r11
    3627:	49 83 c3 01          	add    $0x1,%r11
    362b:	49 83 eb 01          	sub    $0x1,%r11
    362f:	49 83 c3 01          	add    $0x1,%r11
    3633:	49 83 eb 01          	sub    $0x1,%r11
    3637:	49 83 c3 01          	add    $0x1,%r11
    363b:	49 83 eb 01          	sub    $0x1,%r11
    363f:	49 83 c3 01          	add    $0x1,%r11
    3643:	49 83 eb 01          	sub    $0x1,%r11
    3647:	49 83 c3 01          	add    $0x1,%r11
    364b:	49 83 eb 01          	sub    $0x1,%r11
    364f:	49 83 c3 01          	add    $0x1,%r11
    3653:	49 83 eb 01          	sub    $0x1,%r11
    3657:	49 83 c3 01          	add    $0x1,%r11
    365b:	49 83 eb 01          	sub    $0x1,%r11
    365f:	49 83 c3 01          	add    $0x1,%r11
    3663:	49 83 eb 01          	sub    $0x1,%r11
    3667:	49 83 c3 01          	add    $0x1,%r11
    366b:	49 83 eb 01          	sub    $0x1,%r11
    366f:	49 83 c3 01          	add    $0x1,%r11
    3673:	49 83 eb 01          	sub    $0x1,%r11
    3677:	49 83 c3 01          	add    $0x1,%r11
    367b:	49 83 eb 01          	sub    $0x1,%r11
    367f:	49 83 c3 01          	add    $0x1,%r11
    3683:	49 83 eb 01          	sub    $0x1,%r11
    3687:	49 83 c3 01          	add    $0x1,%r11
    368b:	49 83 eb 01          	sub    $0x1,%r11
    368f:	49 83 c3 01          	add    $0x1,%r11
    3693:	49 83 eb 01          	sub    $0x1,%r11
    3697:	49 83 c3 01          	add    $0x1,%r11
    369b:	49 83 eb 01          	sub    $0x1,%r11
    369f:	49 83 c3 01          	add    $0x1,%r11
    36a3:	49 83 eb 01          	sub    $0x1,%r11
    36a7:	49 83 c3 01          	add    $0x1,%r11
    36ab:	49 83 eb 01          	sub    $0x1,%r11
    36af:	49 83 c3 01          	add    $0x1,%r11
    36b3:	49 83 eb 01          	sub    $0x1,%r11
    36b7:	49 83 c3 01          	add    $0x1,%r11
    36bb:	49 83 eb 01          	sub    $0x1,%r11
    36bf:	49 83 c3 01          	add    $0x1,%r11
    36c3:	49 83 eb 01          	sub    $0x1,%r11
    36c7:	49 83 c3 01          	add    $0x1,%r11
    36cb:	49 83 eb 01          	sub    $0x1,%r11
    36cf:	49 83 c3 01          	add    $0x1,%r11
    36d3:	49 83 eb 01          	sub    $0x1,%r11
    36d7:	49 83 c3 01          	add    $0x1,%r11
    36db:	49 83 eb 01          	sub    $0x1,%r11
    36df:	49 83 c3 01          	add    $0x1,%r11
    36e3:	49 83 eb 01          	sub    $0x1,%r11
    36e7:	49 83 c3 01          	add    $0x1,%r11
    36eb:	49 83 eb 01          	sub    $0x1,%r11
    36ef:	49 83 c3 01          	add    $0x1,%r11
    36f3:	49 83 eb 01          	sub    $0x1,%r11
    36f7:	49 83 c3 01          	add    $0x1,%r11
    36fb:	49 83 eb 01          	sub    $0x1,%r11
    36ff:	49 83 c3 01          	add    $0x1,%r11
    3703:	49 83 eb 01          	sub    $0x1,%r11
    3707:	49 83 c3 01          	add    $0x1,%r11
    370b:	49 83 eb 01          	sub    $0x1,%r11
    370f:	49 83 c3 01          	add    $0x1,%r11
    3713:	49 83 eb 01          	sub    $0x1,%r11
    3717:	49 83 c3 01          	add    $0x1,%r11
    371b:	49 83 eb 01          	sub    $0x1,%r11
    371f:	49 83 c3 01          	add    $0x1,%r11
    3723:	49 83 eb 01          	sub    $0x1,%r11
    3727:	49 83 c3 01          	add    $0x1,%r11
    372b:	49 83 eb 01          	sub    $0x1,%r11
    372f:	49 83 c3 01          	add    $0x1,%r11
    3733:	49 83 eb 01          	sub    $0x1,%r11
    3737:	49 83 c3 01          	add    $0x1,%r11
    373b:	49 83 eb 01          	sub    $0x1,%r11
    373f:	49 83 c3 01          	add    $0x1,%r11
    3743:	49 83 eb 01          	sub    $0x1,%r11
    3747:	49 83 c3 01          	add    $0x1,%r11
    374b:	49 83 eb 01          	sub    $0x1,%r11
    374f:	49 83 c3 01          	add    $0x1,%r11
    3753:	49 83 eb 01          	sub    $0x1,%r11
    3757:	49 83 c3 01          	add    $0x1,%r11
    375b:	49 83 eb 01          	sub    $0x1,%r11
    375f:	49 83 c3 01          	add    $0x1,%r11
    3763:	49 83 eb 01          	sub    $0x1,%r11
    3767:	49 83 c3 01          	add    $0x1,%r11
    376b:	49 83 eb 01          	sub    $0x1,%r11
    376f:	49 83 c3 01          	add    $0x1,%r11
    3773:	49 83 eb 01          	sub    $0x1,%r11
    3777:	49 83 c3 01          	add    $0x1,%r11
    377b:	49 83 eb 01          	sub    $0x1,%r11
    377f:	49 83 c3 01          	add    $0x1,%r11
    3783:	49 83 eb 01          	sub    $0x1,%r11
    3787:	49 83 c3 01          	add    $0x1,%r11
    378b:	49 83 eb 01          	sub    $0x1,%r11
    378f:	49 83 c3 01          	add    $0x1,%r11
    3793:	49 83 eb 01          	sub    $0x1,%r11
    3797:	49 83 c3 01          	add    $0x1,%r11
    379b:	49 83 eb 01          	sub    $0x1,%r11
    379f:	49 83 c3 01          	add    $0x1,%r11
    37a3:	49 83 eb 01          	sub    $0x1,%r11
    37a7:	49 83 c3 01          	add    $0x1,%r11
    37ab:	49 83 eb 01          	sub    $0x1,%r11
    37af:	49 83 c3 01          	add    $0x1,%r11
    37b3:	49 83 eb 01          	sub    $0x1,%r11
    37b7:	49 83 c3 01          	add    $0x1,%r11
    37bb:	49 83 eb 01          	sub    $0x1,%r11
    37bf:	49 83 c3 01          	add    $0x1,%r11
    37c3:	49 83 eb 01          	sub    $0x1,%r11
    37c7:	49 83 c3 01          	add    $0x1,%r11
    37cb:	49 83 eb 01          	sub    $0x1,%r11
    37cf:	49 83 c3 01          	add    $0x1,%r11
    37d3:	49 83 eb 01          	sub    $0x1,%r11
    37d7:	49 83 c3 01          	add    $0x1,%r11
    37db:	49 83 eb 01          	sub    $0x1,%r11
    37df:	49 83 c3 01          	add    $0x1,%r11
    37e3:	49 83 eb 01          	sub    $0x1,%r11
    37e7:	49 83 c3 01          	add    $0x1,%r11
    37eb:	49 83 eb 01          	sub    $0x1,%r11
    37ef:	49 83 c3 01          	add    $0x1,%r11
    37f3:	49 83 eb 01          	sub    $0x1,%r11
    37f7:	49 83 c3 01          	add    $0x1,%r11
    37fb:	49 83 eb 01          	sub    $0x1,%r11
    37ff:	49 83 c3 01          	add    $0x1,%r11
    3803:	49 83 eb 01          	sub    $0x1,%r11
    3807:	49 83 c3 01          	add    $0x1,%r11
    380b:	49 83 eb 01          	sub    $0x1,%r11
    380f:	49 83 c3 01          	add    $0x1,%r11
    3813:	49 83 eb 01          	sub    $0x1,%r11
    3817:	49 83 c3 01          	add    $0x1,%r11
    381b:	49 83 eb 01          	sub    $0x1,%r11
    381f:	49 83 c3 01          	add    $0x1,%r11
    3823:	49 83 eb 01          	sub    $0x1,%r11
    3827:	49 83 c3 01          	add    $0x1,%r11
    382b:	49 83 eb 01          	sub    $0x1,%r11
    382f:	49 83 c3 01          	add    $0x1,%r11
    3833:	49 83 eb 01          	sub    $0x1,%r11
    3837:	49 83 c3 01          	add    $0x1,%r11
    383b:	49 83 eb 01          	sub    $0x1,%r11
    383f:	49 83 c3 01          	add    $0x1,%r11
    3843:	49 83 eb 01          	sub    $0x1,%r11
    3847:	49 83 c3 01          	add    $0x1,%r11
    384b:	49 83 eb 01          	sub    $0x1,%r11
    384f:	49 83 c3 01          	add    $0x1,%r11
    3853:	49 83 eb 01          	sub    $0x1,%r11

0000000000003857 <TO_ADDR_END>:
    3857:	90                   	nop
    3858:	8b 45 18             	mov    0x18(%rbp),%eax
    385b:	89 45 84             	mov    %eax,-0x7c(%rbp)
    385e:	48 8b 15 00 00 00 00 	mov    0x0(%rip),%rdx        # 3865 <TO_ADDR_END+0xe>
    3865:	8b 45 84             	mov    -0x7c(%rbp),%eax
    3868:	c1 e0 0c             	shl    $0xc,%eax
    386b:	48 98                	cltq   
    386d:	48 01 d0             	add    %rdx,%rax
    3870:	48 89 45 a8          	mov    %rax,-0x58(%rbp)
    3874:	48 c7 45 b0 00 00 00 	movq   $0x0,-0x50(%rbp)
    387b:	00 
    387c:	48 c7 45 b8 00 00 00 	movq   $0x0,-0x48(%rbp)
    3883:	00 
    3884:	b8 00 00 00 00       	mov    $0x0,%eax
    3889:	e8 dd ce ff ff       	callq  76b <rdtsc>
    388e:	48 89 45 b0          	mov    %rax,-0x50(%rbp)
    3892:	48 8b 45 a8          	mov    -0x58(%rbp),%rax
    3896:	48 89 c7             	mov    %rax,%rdi
    3899:	e8 03 cf ff ff       	callq  7a1 <maccess>
    389e:	b8 00 00 00 00       	mov    $0x0,%eax
    38a3:	e8 c3 ce ff ff       	callq  76b <rdtsc>
    38a8:	48 89 45 b8          	mov    %rax,-0x48(%rbp)
    38ac:	48 8b 45 a8          	mov    -0x58(%rbp),%rax
    38b0:	48 89 c7             	mov    %rax,%rdi
    38b3:	e8 fe ce ff ff       	callq  7b6 <flush>
    38b8:	48 8b 45 b8          	mov    -0x48(%rbp),%rax
    38bc:	48 2b 45 b0          	sub    -0x50(%rbp),%rax
    38c0:	48 89 c2             	mov    %rax,%rdx
    38c3:	48 8b 05 00 00 00 00 	mov    0x0(%rip),%rax        # 38ca <TO_ADDR_END+0x73>
    38ca:	48 39 c2             	cmp    %rax,%rdx
    38cd:	73 07                	jae    38d6 <TO_ADDR_END+0x7f>
    38cf:	b8 01 00 00 00       	mov    $0x1,%eax
    38d4:	eb 05                	jmp    38db <TO_ADDR_END+0x84>
    38d6:	b8 00 00 00 00       	mov    $0x0,%eax
    38db:	85 c0                	test   %eax,%eax
    38dd:	74 09                	je     38e8 <TO_ADDR_END+0x91>
    38df:	8b 45 e0             	mov    -0x20(%rbp),%eax
    38e2:	83 c0 01             	add    $0x1,%eax
    38e5:	89 45 e0             	mov    %eax,-0x20(%rbp)
    38e8:	c7 45 84 00 00 00 00 	movl   $0x0,-0x7c(%rbp)
    38ef:	48 8b 15 00 00 00 00 	mov    0x0(%rip),%rdx        # 38f6 <TO_ADDR_END+0x9f>
    38f6:	8b 45 84             	mov    -0x7c(%rbp),%eax
    38f9:	c1 e0 0c             	shl    $0xc,%eax
    38fc:	48 98                	cltq   
    38fe:	48 01 d0             	add    %rdx,%rax
    3901:	48 89 45 88          	mov    %rax,-0x78(%rbp)
    3905:	48 c7 45 c0 00 00 00 	movq   $0x0,-0x40(%rbp)
    390c:	00 
    390d:	48 c7 45 c8 00 00 00 	movq   $0x0,-0x38(%rbp)
    3914:	00 
    3915:	b8 00 00 00 00       	mov    $0x0,%eax
    391a:	e8 4c ce ff ff       	callq  76b <rdtsc>
    391f:	48 89 45 c0          	mov    %rax,-0x40(%rbp)
    3923:	48 8b 45 88          	mov    -0x78(%rbp),%rax
    3927:	48 89 c7             	mov    %rax,%rdi
    392a:	e8 72 ce ff ff       	callq  7a1 <maccess>
    392f:	b8 00 00 00 00       	mov    $0x0,%eax
    3934:	e8 32 ce ff ff       	callq  76b <rdtsc>
    3939:	48 89 45 c8          	mov    %rax,-0x38(%rbp)
    393d:	48 8b 45 88          	mov    -0x78(%rbp),%rax
    3941:	48 89 c7             	mov    %rax,%rdi
    3944:	e8 6d ce ff ff       	callq  7b6 <flush>
    3949:	48 8b 45 c8          	mov    -0x38(%rbp),%rax
    394d:	48 2b 45 c0          	sub    -0x40(%rbp),%rax
    3951:	48 89 c2             	mov    %rax,%rdx
    3954:	48 8b 05 00 00 00 00 	mov    0x0(%rip),%rax        # 395b <TO_ADDR_END+0x104>
    395b:	48 39 c2             	cmp    %rax,%rdx
    395e:	73 07                	jae    3967 <TO_ADDR_END+0x110>
    3960:	b8 01 00 00 00       	mov    $0x1,%eax
    3965:	eb 05                	jmp    396c <TO_ADDR_END+0x115>
    3967:	b8 00 00 00 00       	mov    $0x0,%eax
    396c:	85 c0                	test   %eax,%eax
    396e:	74 09                	je     3979 <TO_ADDR_END+0x122>
    3970:	8b 45 e4             	mov    -0x1c(%rbp),%eax
    3973:	83 c0 01             	add    $0x1,%eax
    3976:	89 45 e4             	mov    %eax,-0x1c(%rbp)
    3979:	c7 45 84 01 00 00 00 	movl   $0x1,-0x7c(%rbp)
    3980:	48 8b 15 00 00 00 00 	mov    0x0(%rip),%rdx        # 3987 <TO_ADDR_END+0x130>
    3987:	8b 45 84             	mov    -0x7c(%rbp),%eax
    398a:	c1 e0 0c             	shl    $0xc,%eax
    398d:	48 98                	cltq   
    398f:	48 01 d0             	add    %rdx,%rax
    3992:	48 89 45 90          	mov    %rax,-0x70(%rbp)
    3996:	48 c7 45 d0 00 00 00 	movq   $0x0,-0x30(%rbp)
    399d:	00 
    399e:	48 c7 45 d8 00 00 00 	movq   $0x0,-0x28(%rbp)
    39a5:	00 
    39a6:	b8 00 00 00 00       	mov    $0x0,%eax
    39ab:	e8 bb cd ff ff       	callq  76b <rdtsc>
    39b0:	48 89 45 d0          	mov    %rax,-0x30(%rbp)
    39b4:	48 8b 45 90          	mov    -0x70(%rbp),%rax
    39b8:	48 89 c7             	mov    %rax,%rdi
    39bb:	e8 e1 cd ff ff       	callq  7a1 <maccess>
    39c0:	b8 00 00 00 00       	mov    $0x0,%eax
    39c5:	e8 a1 cd ff ff       	callq  76b <rdtsc>
    39ca:	48 89 45 d8          	mov    %rax,-0x28(%rbp)
    39ce:	48 8b 45 90          	mov    -0x70(%rbp),%rax
    39d2:	48 89 c7             	mov    %rax,%rdi
    39d5:	e8 dc cd ff ff       	callq  7b6 <flush>
    39da:	48 8b 45 d8          	mov    -0x28(%rbp),%rax
    39de:	48 2b 45 d0          	sub    -0x30(%rbp),%rax
    39e2:	48 89 c2             	mov    %rax,%rdx
    39e5:	48 8b 05 00 00 00 00 	mov    0x0(%rip),%rax        # 39ec <TO_ADDR_END+0x195>
    39ec:	48 39 c2             	cmp    %rax,%rdx
    39ef:	73 07                	jae    39f8 <TO_ADDR_END+0x1a1>
    39f1:	b8 01 00 00 00       	mov    $0x1,%eax
    39f6:	eb 05                	jmp    39fd <TO_ADDR_END+0x1a6>
    39f8:	b8 00 00 00 00       	mov    $0x0,%eax
    39fd:	85 c0                	test   %eax,%eax
    39ff:	74 09                	je     3a0a <TO_ADDR_END+0x1b3>
    3a01:	8b 45 e8             	mov    -0x18(%rbp),%eax
    3a04:	83 c0 01             	add    $0x1,%eax
    3a07:	89 45 e8             	mov    %eax,-0x18(%rbp)
    3a0a:	83 ad 7c ff ff ff 01 	subl   $0x1,-0x84(%rbp)
    3a11:	83 bd 7c ff ff ff 00 	cmpl   $0x0,-0x84(%rbp)
    3a18:	0f 8f 31 fa ff ff    	jg     344f <readMemoryByte+0x11a>
    3a1e:	8b 4d e8             	mov    -0x18(%rbp),%ecx
    3a21:	8b 55 e4             	mov    -0x1c(%rbp),%edx
    3a24:	8b 45 e0             	mov    -0x20(%rbp),%eax
    3a27:	89 c6                	mov    %eax,%esi
    3a29:	48 8d 3d 00 00 00 00 	lea    0x0(%rip),%rdi        # 3a30 <TO_ADDR_END+0x1d9>
    3a30:	b8 00 00 00 00       	mov    $0x0,%eax
    3a35:	e8 00 00 00 00       	callq  3a3a <TO_ADDR_END+0x1e3>
    3a3a:	8b 45 18             	mov    0x18(%rbp),%eax
    3a3d:	89 c2                	mov    %eax,%edx
    3a3f:	48 8b 85 50 ff ff ff 	mov    -0xb0(%rbp),%rax
    3a46:	88 10                	mov    %dl,(%rax)
    3a48:	48 8b 85 58 ff ff ff 	mov    -0xa8(%rbp),%rax
    3a4f:	8b 10                	mov    (%rax),%edx
    3a51:	8b 45 e0             	mov    -0x20(%rbp),%eax
    3a54:	01 c2                	add    %eax,%edx
    3a56:	48 8b 85 58 ff ff ff 	mov    -0xa8(%rbp),%rax
    3a5d:	89 10                	mov    %edx,(%rax)
    3a5f:	48 8b 85 50 ff ff ff 	mov    -0xb0(%rbp),%rax
    3a66:	48 83 c0 01          	add    $0x1,%rax
    3a6a:	c6 00 00             	movb   $0x0,(%rax)
    3a6d:	48 8b 85 58 ff ff ff 	mov    -0xa8(%rbp),%rax
    3a74:	48 83 c0 04          	add    $0x4,%rax
    3a78:	48 8b 95 58 ff ff ff 	mov    -0xa8(%rbp),%rdx
    3a7f:	48 83 c2 04          	add    $0x4,%rdx
    3a83:	8b 0a                	mov    (%rdx),%ecx
    3a85:	8b 55 e4             	mov    -0x1c(%rbp),%edx
    3a88:	01 ca                	add    %ecx,%edx
    3a8a:	89 10                	mov    %edx,(%rax)
    3a8c:	8b 75 e0             	mov    -0x20(%rbp),%esi
    3a8f:	8b 0d 00 00 00 00    	mov    0x0(%rip),%ecx        # 3a95 <TO_ADDR_END+0x23e>
    3a95:	ba 1f 85 eb 51       	mov    $0x51eb851f,%edx
    3a9a:	89 c8                	mov    %ecx,%eax
    3a9c:	f7 ea                	imul   %edx
    3a9e:	c1 fa 04             	sar    $0x4,%edx
    3aa1:	89 c8                	mov    %ecx,%eax
    3aa3:	c1 f8 1f             	sar    $0x1f,%eax
    3aa6:	29 c2                	sub    %eax,%edx
    3aa8:	89 d0                	mov    %edx,%eax
    3aaa:	39 c6                	cmp    %eax,%esi
    3aac:	7d 29                	jge    3ad7 <TO_ADDR_END+0x280>
    3aae:	8b 75 e4             	mov    -0x1c(%rbp),%esi
    3ab1:	8b 0d 00 00 00 00    	mov    0x0(%rip),%ecx        # 3ab7 <TO_ADDR_END+0x260>
    3ab7:	ba 1f 85 eb 51       	mov    $0x51eb851f,%edx
    3abc:	89 c8                	mov    %ecx,%eax
    3abe:	f7 ea                	imul   %edx
    3ac0:	c1 fa 04             	sar    $0x4,%edx
    3ac3:	89 c8                	mov    %ecx,%eax
    3ac5:	c1 f8 1f             	sar    $0x1f,%eax
    3ac8:	29 c2                	sub    %eax,%edx
    3aca:	89 d0                	mov    %edx,%eax
    3acc:	39 c6                	cmp    %eax,%esi
    3ace:	7d 07                	jge    3ad7 <TO_ADDR_END+0x280>
    3ad0:	b8 ff ff ff ff       	mov    $0xffffffff,%eax
    3ad5:	eb 15                	jmp    3aec <TO_ADDR_END+0x295>
    3ad7:	8b 55 e0             	mov    -0x20(%rbp),%edx
    3ada:	8b 45 e4             	mov    -0x1c(%rbp),%eax
    3add:	39 c2                	cmp    %eax,%edx
    3adf:	7c 05                	jl     3ae6 <TO_ADDR_END+0x28f>
    3ae1:	8b 45 18             	mov    0x18(%rbp),%eax
    3ae4:	eb 06                	jmp    3aec <TO_ADDR_END+0x295>
    3ae6:	b8 00 00 00 00       	mov    $0x0,%eax
    3aeb:	90                   	nop
    3aec:	48 8b 75 f8          	mov    -0x8(%rbp),%rsi
    3af0:	64 48 33 34 25 28 00 	xor    %fs:0x28,%rsi
    3af7:	00 00 
    3af9:	74 05                	je     3b00 <TO_ADDR_END+0x2a9>
    3afb:	e8 00 00 00 00       	callq  3b00 <TO_ADDR_END+0x2a9>
    3b00:	c9                   	leaveq 
    3b01:	c3                   	retq   

0000000000003b02 <libkdump_spectre_prepare>:
    3b02:	55                   	push   %rbp
    3b03:	48 89 e5             	mov    %rsp,%rbp
    3b06:	48 83 ec 10          	sub    $0x10,%rsp
    3b0a:	48 89 7d f8          	mov    %rdi,-0x8(%rbp)
    3b0e:	48 89 75 f0          	mov    %rsi,-0x10(%rbp)
    3b12:	bf 00 50 00 00       	mov    $0x5000,%edi
    3b17:	e8 00 00 00 00       	callq  3b1c <libkdump_spectre_prepare+0x1a>
    3b1c:	48 89 c2             	mov    %rax,%rdx
    3b1f:	48 8b 05 00 00 00 00 	mov    0x0(%rip),%rax        # 3b26 <libkdump_spectre_prepare+0x24>
    3b26:	48 89 10             	mov    %rdx,(%rax)
    3b29:	48 8b 05 00 00 00 00 	mov    0x0(%rip),%rax        # 3b30 <libkdump_spectre_prepare+0x2e>
    3b30:	48 8b 00             	mov    (%rax),%rax
    3b33:	48 89 c6             	mov    %rax,%rsi
    3b36:	48 8d 3d 00 00 00 00 	lea    0x0(%rip),%rdi        # 3b3d <libkdump_spectre_prepare+0x3b>
    3b3d:	b8 00 00 00 00       	mov    $0x0,%eax
    3b42:	e8 00 00 00 00       	callq  3b47 <libkdump_spectre_prepare+0x45>
    3b47:	48 8b 05 00 00 00 00 	mov    0x0(%rip),%rax        # 3b4e <libkdump_spectre_prepare+0x4c>
    3b4e:	48 8b 00             	mov    (%rax),%rax
    3b51:	48 c7 00 00 00 00 00 	movq   $0x0,(%rax)
    3b58:	48 8b 05 00 00 00 00 	mov    0x0(%rip),%rax        # 3b5f <libkdump_spectre_prepare+0x5d>
    3b5f:	48 8b 00             	mov    (%rax),%rax
    3b62:	48 8d 90 00 10 00 00 	lea    0x1000(%rax),%rdx
    3b69:	48 8b 05 00 00 00 00 	mov    0x0(%rip),%rax        # 3b70 <libkdump_spectre_prepare+0x6e>
    3b70:	48 89 10             	mov    %rdx,(%rax)
    3b73:	48 8b 05 00 00 00 00 	mov    0x0(%rip),%rax        # 3b7a <libkdump_spectre_prepare+0x78>
    3b7a:	48 8b 00             	mov    (%rax),%rax
    3b7d:	48 8b 15 00 00 00 00 	mov    0x0(%rip),%rdx        # 3b84 <libkdump_spectre_prepare+0x82>
    3b84:	48 8b 12             	mov    (%rdx),%rdx
    3b87:	48 89 10             	mov    %rdx,(%rax)
    3b8a:	48 8b 05 00 00 00 00 	mov    0x0(%rip),%rax        # 3b91 <libkdump_spectre_prepare+0x8f>
    3b91:	48 8b 00             	mov    (%rax),%rax
    3b94:	48 8b 10             	mov    (%rax),%rdx
    3b97:	48 8b 05 00 00 00 00 	mov    0x0(%rip),%rax        # 3b9e <libkdump_spectre_prepare+0x9c>
    3b9e:	48 8b 00             	mov    (%rax),%rax
    3ba1:	48 89 c6             	mov    %rax,%rsi
    3ba4:	48 8d 3d 00 00 00 00 	lea    0x0(%rip),%rdi        # 3bab <libkdump_spectre_prepare+0xa9>
    3bab:	b8 00 00 00 00       	mov    $0x0,%eax
    3bb0:	e8 00 00 00 00       	callq  3bb5 <libkdump_spectre_prepare+0xb3>
    3bb5:	48 8b 05 00 00 00 00 	mov    0x0(%rip),%rax        # 3bbc <libkdump_spectre_prepare+0xba>
    3bbc:	48 8b 00             	mov    (%rax),%rax
    3bbf:	48 8d 90 00 10 00 00 	lea    0x1000(%rax),%rdx
    3bc6:	48 8b 05 00 00 00 00 	mov    0x0(%rip),%rax        # 3bcd <libkdump_spectre_prepare+0xcb>
    3bcd:	48 89 10             	mov    %rdx,(%rax)
    3bd0:	48 8b 05 00 00 00 00 	mov    0x0(%rip),%rax        # 3bd7 <libkdump_spectre_prepare+0xd5>
    3bd7:	48 8b 00             	mov    (%rax),%rax
    3bda:	48 8b 15 00 00 00 00 	mov    0x0(%rip),%rdx        # 3be1 <libkdump_spectre_prepare+0xdf>
    3be1:	48 8b 12             	mov    (%rdx),%rdx
    3be4:	48 89 10             	mov    %rdx,(%rax)
    3be7:	48 8b 05 00 00 00 00 	mov    0x0(%rip),%rax        # 3bee <libkdump_spectre_prepare+0xec>
    3bee:	48 8b 00             	mov    (%rax),%rax
    3bf1:	48 8b 10             	mov    (%rax),%rdx
    3bf4:	48 8b 05 00 00 00 00 	mov    0x0(%rip),%rax        # 3bfb <libkdump_spectre_prepare+0xf9>
    3bfb:	48 8b 00             	mov    (%rax),%rax
    3bfe:	48 89 c6             	mov    %rax,%rsi
    3c01:	48 8d 3d 00 00 00 00 	lea    0x0(%rip),%rdi        # 3c08 <libkdump_spectre_prepare+0x106>
    3c08:	b8 00 00 00 00       	mov    $0x0,%eax
    3c0d:	e8 00 00 00 00       	callq  3c12 <libkdump_spectre_prepare+0x110>
    3c12:	48 8b 05 00 00 00 00 	mov    0x0(%rip),%rax        # 3c19 <libkdump_spectre_prepare+0x117>
    3c19:	48 8b 00             	mov    (%rax),%rax
    3c1c:	48 8d 90 00 10 00 00 	lea    0x1000(%rax),%rdx
    3c23:	48 8b 05 00 00 00 00 	mov    0x0(%rip),%rax        # 3c2a <libkdump_spectre_prepare+0x128>
    3c2a:	48 89 10             	mov    %rdx,(%rax)
    3c2d:	48 8b 05 00 00 00 00 	mov    0x0(%rip),%rax        # 3c34 <libkdump_spectre_prepare+0x132>
    3c34:	48 8b 00             	mov    (%rax),%rax
    3c37:	48 8b 15 00 00 00 00 	mov    0x0(%rip),%rdx        # 3c3e <libkdump_spectre_prepare+0x13c>
    3c3e:	48 8b 12             	mov    (%rdx),%rdx
    3c41:	48 89 10             	mov    %rdx,(%rax)
    3c44:	48 8b 05 00 00 00 00 	mov    0x0(%rip),%rax        # 3c4b <libkdump_spectre_prepare+0x149>
    3c4b:	48 8b 00             	mov    (%rax),%rax
    3c4e:	48 8b 10             	mov    (%rax),%rdx
    3c51:	48 8b 05 00 00 00 00 	mov    0x0(%rip),%rax        # 3c58 <libkdump_spectre_prepare+0x156>
    3c58:	48 8b 00             	mov    (%rax),%rax
    3c5b:	48 89 c6             	mov    %rax,%rsi
    3c5e:	48 8d 3d 00 00 00 00 	lea    0x0(%rip),%rdi        # 3c65 <libkdump_spectre_prepare+0x163>
    3c65:	b8 00 00 00 00       	mov    $0x0,%eax
    3c6a:	e8 00 00 00 00       	callq  3c6f <libkdump_spectre_prepare+0x16d>
    3c6f:	48 8b 05 00 00 00 00 	mov    0x0(%rip),%rax        # 3c76 <libkdump_spectre_prepare+0x174>
    3c76:	48 8b 00             	mov    (%rax),%rax
    3c79:	48 8d 90 00 10 00 00 	lea    0x1000(%rax),%rdx
    3c80:	48 8b 05 00 00 00 00 	mov    0x0(%rip),%rax        # 3c87 <libkdump_spectre_prepare+0x185>
    3c87:	48 89 10             	mov    %rdx,(%rax)
    3c8a:	48 8b 05 00 00 00 00 	mov    0x0(%rip),%rax        # 3c91 <libkdump_spectre_prepare+0x18f>
    3c91:	48 8b 00             	mov    (%rax),%rax
    3c94:	48 8b 15 00 00 00 00 	mov    0x0(%rip),%rdx        # 3c9b <libkdump_spectre_prepare+0x199>
    3c9b:	48 8b 12             	mov    (%rdx),%rdx
    3c9e:	48 89 10             	mov    %rdx,(%rax)
    3ca1:	48 8b 05 00 00 00 00 	mov    0x0(%rip),%rax        # 3ca8 <libkdump_spectre_prepare+0x1a6>
    3ca8:	48 8b 00             	mov    (%rax),%rax
    3cab:	48 8b 10             	mov    (%rax),%rdx
    3cae:	48 8b 05 00 00 00 00 	mov    0x0(%rip),%rax        # 3cb5 <libkdump_spectre_prepare+0x1b3>
    3cb5:	48 8b 00             	mov    (%rax),%rax
    3cb8:	48 89 c6             	mov    %rax,%rsi
    3cbb:	48 8d 3d 00 00 00 00 	lea    0x0(%rip),%rdi        # 3cc2 <libkdump_spectre_prepare+0x1c0>
    3cc2:	b8 00 00 00 00       	mov    $0x0,%eax
    3cc7:	e8 00 00 00 00       	callq  3ccc <libkdump_spectre_prepare+0x1ca>
    3ccc:	90                   	nop
    3ccd:	c9                   	leaveq 
    3cce:	c3                   	retq   

0000000000003ccf <libkdump_spectre_result>:
    3ccf:	55                   	push   %rbp
    3cd0:	48 89 e5             	mov    %rsp,%rbp
    3cd3:	48 83 ec 10          	sub    $0x10,%rsp
    3cd7:	48 89 7d f8          	mov    %rdi,-0x8(%rbp)
    3cdb:	48 89 75 f0          	mov    %rsi,-0x10(%rbp)
    3cdf:	48 8b 45 f8          	mov    -0x8(%rbp),%rax
    3ce3:	8b 00                	mov    (%rax),%eax
    3ce5:	48 8b 55 f8          	mov    -0x8(%rbp),%rdx
    3ce9:	48 83 c2 04          	add    $0x4,%rdx
    3ced:	8b 12                	mov    (%rdx),%edx
    3cef:	01 d2                	add    %edx,%edx
    3cf1:	39 d0                	cmp    %edx,%eax
    3cf3:	7c 09                	jl     3cfe <libkdump_spectre_result+0x2f>
    3cf5:	48 8d 05 00 00 00 00 	lea    0x0(%rip),%rax        # 3cfc <libkdump_spectre_result+0x2d>
    3cfc:	eb 07                	jmp    3d05 <libkdump_spectre_result+0x36>
    3cfe:	48 8d 05 00 00 00 00 	lea    0x0(%rip),%rax        # 3d05 <libkdump_spectre_result+0x36>
    3d05:	48 89 c6             	mov    %rax,%rsi
    3d08:	48 8d 3d 00 00 00 00 	lea    0x0(%rip),%rdi        # 3d0f <libkdump_spectre_result+0x40>
    3d0f:	b8 00 00 00 00       	mov    $0x0,%eax
    3d14:	e8 00 00 00 00       	callq  3d19 <libkdump_spectre_result+0x4a>
    3d19:	48 8b 45 f8          	mov    -0x8(%rbp),%rax
    3d1d:	8b 10                	mov    (%rax),%edx
    3d1f:	48 8b 45 f0          	mov    -0x10(%rbp),%rax
    3d23:	0f b6 00             	movzbl (%rax),%eax
    3d26:	3c 1f                	cmp    $0x1f,%al
    3d28:	76 17                	jbe    3d41 <libkdump_spectre_result+0x72>
    3d2a:	48 8b 45 f0          	mov    -0x10(%rbp),%rax
    3d2e:	0f b6 00             	movzbl (%rax),%eax
    3d31:	3c 7e                	cmp    $0x7e,%al
    3d33:	77 0c                	ja     3d41 <libkdump_spectre_result+0x72>
    3d35:	48 8b 45 f0          	mov    -0x10(%rbp),%rax
    3d39:	0f b6 00             	movzbl (%rax),%eax
    3d3c:	0f b6 c0             	movzbl %al,%eax
    3d3f:	eb 05                	jmp    3d46 <libkdump_spectre_result+0x77>
    3d41:	b8 3f 00 00 00       	mov    $0x3f,%eax
    3d46:	48 8b 4d f0          	mov    -0x10(%rbp),%rcx
    3d4a:	0f b6 09             	movzbl (%rcx),%ecx
    3d4d:	0f b6 f1             	movzbl %cl,%esi
    3d50:	89 d1                	mov    %edx,%ecx
    3d52:	89 c2                	mov    %eax,%edx
    3d54:	48 8d 3d 00 00 00 00 	lea    0x0(%rip),%rdi        # 3d5b <libkdump_spectre_result+0x8c>
    3d5b:	b8 00 00 00 00       	mov    $0x0,%eax
    3d60:	e8 00 00 00 00       	callq  3d65 <libkdump_spectre_result+0x96>
    3d65:	48 8b 45 f8          	mov    -0x8(%rbp),%rax
    3d69:	48 83 c0 04          	add    $0x4,%rax
    3d6d:	8b 00                	mov    (%rax),%eax
    3d6f:	85 c0                	test   %eax,%eax
    3d71:	7e 60                	jle    3dd3 <libkdump_spectre_result+0x104>
    3d73:	48 8b 45 f8          	mov    -0x8(%rbp),%rax
    3d77:	48 83 c0 04          	add    $0x4,%rax
    3d7b:	8b 10                	mov    (%rax),%edx
    3d7d:	48 8b 45 f0          	mov    -0x10(%rbp),%rax
    3d81:	48 83 c0 01          	add    $0x1,%rax
    3d85:	0f b6 00             	movzbl (%rax),%eax
    3d88:	3c 1f                	cmp    $0x1f,%al
    3d8a:	76 1f                	jbe    3dab <libkdump_spectre_result+0xdc>
    3d8c:	48 8b 45 f0          	mov    -0x10(%rbp),%rax
    3d90:	48 83 c0 01          	add    $0x1,%rax
    3d94:	0f b6 00             	movzbl (%rax),%eax
    3d97:	3c 7e                	cmp    $0x7e,%al
    3d99:	77 10                	ja     3dab <libkdump_spectre_result+0xdc>
    3d9b:	48 8b 45 f0          	mov    -0x10(%rbp),%rax
    3d9f:	48 83 c0 01          	add    $0x1,%rax
    3da3:	0f b6 00             	movzbl (%rax),%eax
    3da6:	0f b6 c0             	movzbl %al,%eax
    3da9:	eb 05                	jmp    3db0 <libkdump_spectre_result+0xe1>
    3dab:	b8 3f 00 00 00       	mov    $0x3f,%eax
    3db0:	48 8b 4d f0          	mov    -0x10(%rbp),%rcx
    3db4:	48 83 c1 01          	add    $0x1,%rcx
    3db8:	0f b6 09             	movzbl (%rcx),%ecx
    3dbb:	0f b6 f1             	movzbl %cl,%esi
    3dbe:	89 d1                	mov    %edx,%ecx
    3dc0:	89 c2                	mov    %eax,%edx
    3dc2:	48 8d 3d 00 00 00 00 	lea    0x0(%rip),%rdi        # 3dc9 <libkdump_spectre_result+0xfa>
    3dc9:	b8 00 00 00 00       	mov    $0x0,%eax
    3dce:	e8 00 00 00 00       	callq  3dd3 <libkdump_spectre_result+0x104>
    3dd3:	bf 0a 00 00 00       	mov    $0xa,%edi
    3dd8:	e8 00 00 00 00       	callq  3ddd <libkdump_spectre_result+0x10e>
    3ddd:	90                   	nop
    3dde:	c9                   	leaveq 
    3ddf:	c3                   	retq   

0000000000003de0 <libkdump_spectre_read>:
    3de0:	55                   	push   %rbp
    3de1:	48 89 e5             	mov    %rsp,%rbp
    3de4:	48 81 ec f0 01 00 00 	sub    $0x1f0,%rsp
    3deb:	48 89 bd 38 fe ff ff 	mov    %rdi,-0x1c8(%rbp)
    3df2:	48 89 b5 30 fe ff ff 	mov    %rsi,-0x1d0(%rbp)
    3df9:	48 89 95 28 fe ff ff 	mov    %rdx,-0x1d8(%rbp)
    3e00:	48 89 8d 20 fe ff ff 	mov    %rcx,-0x1e0(%rbp)
    3e07:	4c 89 85 18 fe ff ff 	mov    %r8,-0x1e8(%rbp)
    3e0e:	44 89 8d 14 fe ff ff 	mov    %r9d,-0x1ec(%rbp)
    3e15:	64 48 8b 04 25 28 00 	mov    %fs:0x28,%rax
    3e1c:	00 00 
    3e1e:	48 89 45 f8          	mov    %rax,-0x8(%rbp)
    3e22:	31 c0                	xor    %eax,%eax
    3e24:	c7 85 4c fe ff ff 00 	movl   $0x0,-0x1b4(%rbp)
    3e2b:	00 00 00 
    3e2e:	eb 1a                	jmp    3e4a <libkdump_spectre_read+0x6a>
    3e30:	8b 85 4c fe ff ff    	mov    -0x1b4(%rbp),%eax
    3e36:	48 98                	cltq   
    3e38:	c7 84 85 60 fe ff ff 	movl   $0xffffffff,-0x1a0(%rbp,%rax,4)
    3e3f:	ff ff ff ff 
    3e43:	83 85 4c fe ff ff 01 	addl   $0x1,-0x1b4(%rbp)
    3e4a:	83 bd 4c fe ff ff 63 	cmpl   $0x63,-0x1b4(%rbp)
    3e51:	7e dd                	jle    3e30 <libkdump_spectre_read+0x50>
    3e53:	48 c7 85 58 fe ff ff 	movq   $0x0,-0x1a8(%rbp)
    3e5a:	00 00 00 00 
    3e5e:	48 83 ec 08          	sub    $0x8,%rsp
    3e62:	48 8d 85 58 fe ff ff 	lea    -0x1a8(%rbp),%rax
    3e69:	50                   	push   %rax
    3e6a:	6a 00                	pushq  $0x0
    3e6c:	6a 00                	pushq  $0x0
    3e6e:	41 b9 00 00 00 00    	mov    $0x0,%r9d
    3e74:	41 b8 00 00 00 00    	mov    $0x0,%r8d
    3e7a:	b9 00 00 00 00       	mov    $0x0,%ecx
    3e7f:	ba 00 00 00 00       	mov    $0x0,%edx
    3e84:	be 00 00 00 00       	mov    $0x0,%esi
    3e89:	bf 00 00 00 00       	mov    $0x0,%edi
    3e8e:	e8 00 00 00 00       	callq  3e93 <libkdump_spectre_read+0xb3>
    3e93:	48 83 c4 20          	add    $0x20,%rsp
    3e97:	48 8b 85 58 fe ff ff 	mov    -0x1a8(%rbp),%rax
    3e9e:	48 83 c0 34          	add    $0x34,%rax
    3ea2:	48 89 85 58 fe ff ff 	mov    %rax,-0x1a8(%rbp)
    3ea9:	48 8b 85 58 fe ff ff 	mov    -0x1a8(%rbp),%rax
    3eb0:	48 25 00 f0 ff ff    	and    $0xfffffffffffff000,%rax
    3eb6:	ba 07 00 00 00       	mov    $0x7,%edx
    3ebb:	be 00 10 00 00       	mov    $0x1000,%esi
    3ec0:	48 89 c7             	mov    %rax,%rdi
    3ec3:	e8 00 00 00 00       	callq  3ec8 <libkdump_spectre_read+0xe8>
    3ec8:	85 c0                	test   %eax,%eax
    3eca:	74 1f                	je     3eeb <libkdump_spectre_read+0x10b>
    3ecc:	48 8d 0d 00 00 00 00 	lea    0x0(%rip),%rcx        # 3ed3 <libkdump_spectre_read+0xf3>
    3ed3:	ba fb 08 00 00       	mov    $0x8fb,%edx
    3ed8:	48 8d 35 00 00 00 00 	lea    0x0(%rip),%rsi        # 3edf <libkdump_spectre_read+0xff>
    3edf:	48 8d 3d 00 00 00 00 	lea    0x0(%rip),%rdi        # 3ee6 <libkdump_spectre_read+0x106>
    3ee6:	e8 00 00 00 00       	callq  3eeb <libkdump_spectre_read+0x10b>
    3eeb:	48 8b 85 58 fe ff ff 	mov    -0x1a8(%rbp),%rax
    3ef2:	48 89 c2             	mov    %rax,%rdx
    3ef5:	8b 85 14 fe ff ff    	mov    -0x1ec(%rbp),%eax
    3efb:	48 89 d6             	mov    %rdx,%rsi
    3efe:	89 c7                	mov    %eax,%edi
    3f00:	e8 00 00 00 00       	callq  3f05 <libkdump_spectre_read+0x125>
    3f05:	c7 85 4c fe ff ff 00 	movl   $0x0,-0x1b4(%rbp)
    3f0c:	00 00 00 
    3f0f:	e9 d1 00 00 00       	jmpq   3fe5 <libkdump_spectre_read+0x205>
    3f14:	c7 85 50 fe ff ff 00 	movl   $0x0,-0x1b0(%rbp)
    3f1b:	00 00 00 
    3f1e:	e9 ab 00 00 00       	jmpq   3fce <libkdump_spectre_read+0x1ee>
    3f23:	8b 85 50 fe ff ff    	mov    -0x1b0(%rbp),%eax
    3f29:	89 c6                	mov    %eax,%esi
    3f2b:	48 8d 3d 00 00 00 00 	lea    0x0(%rip),%rdi        # 3f32 <libkdump_spectre_read+0x152>
    3f32:	b8 00 00 00 00       	mov    $0x0,%eax
    3f37:	e8 00 00 00 00       	callq  3f3c <libkdump_spectre_read+0x15c>
    3f3c:	4c 8b 85 18 fe ff ff 	mov    -0x1e8(%rbp),%r8
    3f43:	48 8b 8d 20 fe ff ff 	mov    -0x1e0(%rbp),%rcx
    3f4a:	48 8b 95 28 fe ff ff 	mov    -0x1d8(%rbp),%rdx
    3f51:	48 8b b5 30 fe ff ff 	mov    -0x1d0(%rbp),%rsi
    3f58:	48 8b 85 38 fe ff ff 	mov    -0x1c8(%rbp),%rax
    3f5f:	48 83 ec 08          	sub    $0x8,%rsp
    3f63:	6a 00                	pushq  $0x0
    3f65:	8b 7d 20             	mov    0x20(%rbp),%edi
    3f68:	57                   	push   %rdi
    3f69:	8b 7d 18             	mov    0x18(%rbp),%edi
    3f6c:	57                   	push   %rdi
    3f6d:	44 8b 4d 10          	mov    0x10(%rbp),%r9d
    3f71:	48 89 c7             	mov    %rax,%rdi
    3f74:	e8 00 00 00 00       	callq  3f79 <libkdump_spectre_read+0x199>
    3f79:	48 83 c4 20          	add    $0x20,%rsp
    3f7d:	89 85 54 fe ff ff    	mov    %eax,-0x1ac(%rbp)
    3f83:	83 bd 54 fe ff ff 00 	cmpl   $0x0,-0x1ac(%rbp)
    3f8a:	78 24                	js     3fb0 <libkdump_spectre_read+0x1d0>
    3f8c:	48 8b 85 58 fe ff ff 	mov    -0x1a8(%rbp),%rax
    3f93:	48 89 c2             	mov    %rax,%rdx
    3f96:	8b 85 50 fe ff ff    	mov    -0x1b0(%rbp),%eax
    3f9c:	8d 48 01             	lea    0x1(%rax),%ecx
    3f9f:	8b 85 14 fe ff ff    	mov    -0x1ec(%rbp),%eax
    3fa5:	89 ce                	mov    %ecx,%esi
    3fa7:	89 c7                	mov    %eax,%edi
    3fa9:	e8 00 00 00 00       	callq  3fae <libkdump_spectre_read+0x1ce>
    3fae:	eb 17                	jmp    3fc7 <libkdump_spectre_read+0x1e7>
    3fb0:	8b 85 4c fe ff ff    	mov    -0x1b4(%rbp),%eax
    3fb6:	48 98                	cltq   
    3fb8:	8b 95 50 fe ff ff    	mov    -0x1b0(%rbp),%edx
    3fbe:	89 94 85 60 fe ff ff 	mov    %edx,-0x1a0(%rbp,%rax,4)
    3fc5:	eb 17                	jmp    3fde <libkdump_spectre_read+0x1fe>
    3fc7:	83 85 50 fe ff ff 01 	addl   $0x1,-0x1b0(%rbp)
    3fce:	81 bd 50 fe ff ff 90 	cmpl   $0x90,-0x1b0(%rbp)
    3fd5:	00 00 00 
    3fd8:	0f 8e 45 ff ff ff    	jle    3f23 <libkdump_spectre_read+0x143>
    3fde:	83 85 4c fe ff ff 01 	addl   $0x1,-0x1b4(%rbp)
    3fe5:	8b 05 00 00 00 00    	mov    0x0(%rip),%eax        # 3feb <libkdump_spectre_read+0x20b>
    3feb:	3b 85 4c fe ff ff    	cmp    -0x1b4(%rbp),%eax
    3ff1:	7e 0d                	jle    4000 <libkdump_spectre_read+0x220>
    3ff3:	83 bd 4c fe ff ff 63 	cmpl   $0x63,-0x1b4(%rbp)
    3ffa:	0f 8e 14 ff ff ff    	jle    3f14 <libkdump_spectre_read+0x134>
    4000:	c7 85 4c fe ff ff 00 	movl   $0x0,-0x1b4(%rbp)
    4007:	00 00 00 
    400a:	eb 42                	jmp    404e <libkdump_spectre_read+0x26e>
    400c:	8b 85 4c fe ff ff    	mov    -0x1b4(%rbp),%eax
    4012:	48 98                	cltq   
    4014:	8b 84 85 60 fe ff ff 	mov    -0x1a0(%rbp,%rax,4),%eax
    401b:	85 c0                	test   %eax,%eax
    401d:	78 28                	js     4047 <libkdump_spectre_read+0x267>
    401f:	8b 85 4c fe ff ff    	mov    -0x1b4(%rbp),%eax
    4025:	48 98                	cltq   
    4027:	8b 94 85 60 fe ff ff 	mov    -0x1a0(%rbp,%rax,4),%edx
    402e:	8b 85 4c fe ff ff    	mov    -0x1b4(%rbp),%eax
    4034:	89 c6                	mov    %eax,%esi
    4036:	48 8d 3d 00 00 00 00 	lea    0x0(%rip),%rdi        # 403d <libkdump_spectre_read+0x25d>
    403d:	b8 00 00 00 00       	mov    $0x0,%eax
    4042:	e8 00 00 00 00       	callq  4047 <libkdump_spectre_read+0x267>
    4047:	83 85 4c fe ff ff 01 	addl   $0x1,-0x1b4(%rbp)
    404e:	83 bd 4c fe ff ff 63 	cmpl   $0x63,-0x1b4(%rbp)
    4055:	7e b5                	jle    400c <libkdump_spectre_read+0x22c>
    4057:	90                   	nop
    4058:	48 8b 4d f8          	mov    -0x8(%rbp),%rcx
    405c:	64 48 33 0c 25 28 00 	xor    %fs:0x28,%rcx
    4063:	00 00 
    4065:	74 05                	je     406c <libkdump_spectre_read+0x28c>
    4067:	e8 00 00 00 00       	callq  406c <libkdump_spectre_read+0x28c>
    406c:	c9                   	leaveq 
    406d:	c3                   	retq   

Disassembly of section .data:

0000000000000000 <pagemap.5452>:
   0:	ff                   	(bad)  
   1:	ff                   	(bad)  
   2:	ff                   	(bad)  
   3:	ff                   	.byte 0xff

Disassembly of section .bss:

0000000000000000 <libkdump_auto_config>:
	...

0000000000000038 <xp>:
	...

0000000000000040 <xp1>:
	...

0000000000000048 <xp2>:
	...

0000000000000050 <xp3>:
	...

0000000000000058 <xp4>:
	...

0000000000000060 <buf>:
	...

0000000000000128 <_mem>:
	...

0000000000000130 <mem>:
	...

0000000000000138 <load_thread>:
	...

0000000000000140 <phys>:
	...

0000000000000148 <legal>:
	...

0000000000000150 <dbg>:
	...

0000000000000160 <config>:
	...

0000000000000198 <_evict>:
	...

00000000000001a0 <evict>:
	...

00000000000001c0 <evict_phys>:
	...

00000000000002c0 <to_xmm_load_prepare>:
 2c0:	00 00                	add    %al,(%rax)
	...

00000000000002c4 <to_test_kernel_mode>:
 2c4:	00 00                	add    %al,(%rax)
	...

00000000000002c8 <setexec>:
	...

00000000000002e0 <buffer>:
	...

0000000000000308 <ts>:
	...

0000000000000320 <results.24869>:
	...

Disassembly of section .rodata:

0000000000000000 <__PRETTY_FUNCTION__.5520-0x4f8>:
   0:	66 75 6e             	data16 jne 71 <__PRETTY_FUNCTION__.5520-0x487>
   3:	63 74 69 6f          	movslq 0x6f(%rcx,%rbp,2),%esi
   7:	6e                   	outsb  %ds:(%rsi),(%dx)
   8:	20 62 65             	and    %ah,0x65(%rdx)
   b:	67 69 6e 73 20 61 74 	imul   $0x20746120,0x73(%esi),%ebp
  12:	20 
  13:	25 6c 78 20 61       	and    $0x6120786c,%eax
  18:	6e                   	outsb  %ds:(%rsi),(%dx)
  19:	64 20 69 74          	and    %ch,%fs:0x74(%rcx)
  1d:	73 20                	jae    3f <__PRETTY_FUNCTION__.5520-0x4b9>
  1f:	6c                   	insb   (%dx),%es:(%rdi)
  20:	65 6e                	outsb  %gs:(%rsi),(%dx)
  22:	67 74 68             	addr32 je 8d <__PRETTY_FUNCTION__.5520-0x46b>
  25:	20 69 73             	and    %ch,0x73(%rcx)
  28:	20 25 6c 75 20 62    	and    %ah,0x6220756c(%rip)        # 6220759a <libkdump_spectre_read+0x622037ba>
  2e:	79 74                	jns    a4 <__PRETTY_FUNCTION__.5520-0x454>
  30:	65 73 0a             	gs jae 3d <__PRETTY_FUNCTION__.5520-0x4bb>
  33:	00 1b                	add    %bl,(%rbx)
  35:	5b                   	pop    %rbx
  36:	33 31                	xor    (%rcx),%esi
  38:	3b 31                	cmp    (%rcx),%esi
  3a:	6d                   	insl   (%dx),%es:(%rdi)
  3b:	5b                   	pop    %rbx
  3c:	2d 5d 1b 5b 30       	sub    $0x305b1b5d,%eax
  41:	6d                   	insl   (%dx),%es:(%rdi)
  42:	20 00                	and    %al,(%rax)
  44:	1b 5b 33             	sbb    0x33(%rbx),%ebx
  47:	33 3b                	xor    (%rbx),%edi
  49:	31 6d 5b             	xor    %ebp,0x5b(%rbp)
  4c:	2e 5d                	cs pop %rbp
  4e:	1b 5b 30             	sbb    0x30(%rbx),%ebx
  51:	6d                   	insl   (%dx),%es:(%rdi)
  52:	20 00                	and    %al,(%rax)
  54:	1b 5b 33             	sbb    0x33(%rbx),%ebx
  57:	32 3b                	xor    (%rbx),%bh
  59:	31 6d 5b             	xor    %ebp,0x5b(%rbp)
  5c:	2b 5d 1b             	sub    0x1b(%rbp),%ebx
  5f:	5b                   	pop    %rbx
  60:	30 6d 20             	xor    %ch,0x20(%rbp)
  63:	00 25 78 20 25 6c    	add    %ah,0x6c252078(%rip)        # 6c2520e1 <libkdump_spectre_read+0x6c24e301>
  69:	78 00                	js     6b <__PRETTY_FUNCTION__.5520-0x48d>
  6b:	25 78 20 25 78       	and    $0x78252078,%eax
  70:	00 25 64 20 25 6c    	add    %ah,0x6c252064(%rip)        # 6c2520da <libkdump_spectre_read+0x6c24e2fa>
  76:	78 00                	js     78 <__PRETTY_FUNCTION__.5520-0x480>
  78:	25 64 00 25 78       	and    $0x78250064,%eax
  7d:	00 2f                	add    %ch,(%rdi)
  7f:	70 72                	jo     f3 <__PRETTY_FUNCTION__.5520-0x405>
  81:	6f                   	outsl  %ds:(%rsi),(%dx)
  82:	63 2f                	movslq (%rdi),%ebp
  84:	73 65                	jae    eb <__PRETTY_FUNCTION__.5520-0x40d>
  86:	6c                   	insb   (%dx),%es:(%rdi)
  87:	66 2f                	data16 (bad) 
  89:	70 61                	jo     ec <__PRETTY_FUNCTION__.5520-0x40c>
  8b:	67 65 6d             	gs insl (%dx),%es:(%edi)
  8e:	61                   	(bad)  
  8f:	70 00                	jo     91 <__PRETTY_FUNCTION__.5520-0x467>
  91:	55                   	push   %rbp
  92:	73 69                	jae    fd <__PRETTY_FUNCTION__.5520-0x3fb>
  94:	6e                   	outsb  %ds:(%rsi),(%dx)
  95:	67 20 49 6e          	and    %cl,0x6e(%ecx)
  99:	74 65                	je     100 <__PRETTY_FUNCTION__.5520-0x3f8>
  9b:	6c                   	insb   (%dx),%es:(%rdi)
  9c:	20 54 53 58          	and    %dl,0x58(%rbx,%rdx,2)
  a0:	0a 00                	or     (%rax),%al
  a2:	00 00                	add    %al,(%rax)
  a4:	00 00                	add    %al,(%rax)
  a6:	00 00                	add    %al,(%rax)
  a8:	4e 6f                	rex.WRX outsl %ds:(%rsi),(%dx)
  aa:	20 49 6e             	and    %cl,0x6e(%rcx)
  ad:	74 65                	je     114 <__PRETTY_FUNCTION__.5520-0x3e4>
  af:	6c                   	insb   (%dx),%es:(%rdi)
  b0:	20 54 53 58          	and    %dl,0x58(%rbx,%rdx,2)
  b4:	2c 20                	sub    $0x20,%al
  b6:	66 61                	data16 (bad) 
  b8:	6c                   	insb   (%dx),%es:(%rdi)
  b9:	6c                   	insb   (%dx),%es:(%rdi)
  ba:	62 61                	(bad)  
  bc:	63 6b 20             	movslq 0x20(%rbx),%ebp
  bf:	74 6f                	je     130 <__PRETTY_FUNCTION__.5520-0x3c8>
  c1:	20 73 69             	and    %dh,0x69(%rbx)
  c4:	67 6e                	outsb  %ds:(%esi),(%dx)
  c6:	61                   	(bad)  
  c7:	6c                   	insb   (%dx),%es:(%rdi)
  c8:	20 68 61             	and    %ch,0x61(%rax)
  cb:	6e                   	outsb  %ds:(%rsi),(%dx)
  cc:	64 6c                	fs insb (%dx),%es:(%rdi)
  ce:	65 72 0a             	gs jb  db <__PRETTY_FUNCTION__.5520-0x41d>
  d1:	00 00                	add    %al,(%rax)
  d3:	00 00                	add    %al,(%rax)
  d5:	00 00                	add    %al,(%rax)
  d7:	00 46 6c             	add    %al,0x6c(%rsi)
  da:	75 73                	jne    14f <__PRETTY_FUNCTION__.5520-0x3a9>
  dc:	68 2b 52 65 6c       	pushq  $0x6c65522b
  e1:	6f                   	outsl  %ds:(%rsi),(%dx)
  e2:	61                   	(bad)  
  e3:	64 3a 20             	cmp    %fs:(%rax),%ah
  e6:	25 7a 64 20 63       	and    $0x6320647a,%eax
  eb:	79 63                	jns    150 <__PRETTY_FUNCTION__.5520-0x3a8>
  ed:	6c                   	insb   (%dx),%es:(%rdi)
  ee:	65 73 2c             	gs jae 11d <__PRETTY_FUNCTION__.5520-0x3db>
  f1:	20 52 65             	and    %dl,0x65(%rdx)
  f4:	6c                   	insb   (%dx),%es:(%rdi)
  f5:	6f                   	outsl  %ds:(%rsi),(%dx)
  f6:	61                   	(bad)  
  f7:	64 20 6f 6e          	and    %ch,%fs:0x6e(%rdi)
  fb:	6c                   	insb   (%dx),%es:(%rdi)
  fc:	79 3a                	jns    138 <__PRETTY_FUNCTION__.5520-0x3c0>
  fe:	20 25 7a 64 20 63    	and    %ah,0x6320647a(%rip)        # 6320657e <libkdump_spectre_read+0x6320279e>
 104:	79 63                	jns    169 <__PRETTY_FUNCTION__.5520-0x38f>
 106:	6c                   	insb   (%dx),%es:(%rdi)
 107:	65 73 0a             	gs jae 114 <__PRETTY_FUNCTION__.5520-0x3e4>
 10a:	00 00                	add    %al,(%rax)
 10c:	00 00                	add    %al,(%rax)
 10e:	00 00                	add    %al,(%rax)
 110:	46 6c                	rex.RX insb (%dx),%es:(%rdi)
 112:	75 73                	jne    187 <__PRETTY_FUNCTION__.5520-0x371>
 114:	68 2b 52 65 6c       	pushq  $0x6c65522b
 119:	6f                   	outsl  %ds:(%rsi),(%dx)
 11a:	61                   	(bad)  
 11b:	64 20 74 68 72       	and    %dh,%fs:0x72(%rax,%rbp,2)
 120:	65 73 68             	gs jae 18b <__PRETTY_FUNCTION__.5520-0x36d>
 123:	6f                   	outsl  %ds:(%rsi),(%dx)
 124:	6c                   	insb   (%dx),%es:(%rdi)
 125:	64 3a 20             	cmp    %fs:(%rax),%ah
 128:	25 7a 64 20 63       	and    $0x6320647a,%eax
 12d:	79 63                	jns    192 <__PRETTY_FUNCTION__.5520-0x366>
 12f:	6c                   	insb   (%dx),%es:(%rdi)
 130:	65 73 0a             	gs jae 13d <__PRETTY_FUNCTION__.5520-0x3bb>
 133:	00 41 75             	add    %al,0x75(%rcx)
 136:	74 6f                	je     1a7 <__PRETTY_FUNCTION__.5520-0x351>
 138:	20 63 6f             	and    %ah,0x6f(%rbx)
 13b:	6e                   	outsb  %ds:(%rsi),(%dx)
 13c:	66 69 67 75 72 61    	imul   $0x6172,0x75(%rdi),%sp
 142:	74 69                	je     1ad <__PRETTY_FUNCTION__.5520-0x34b>
 144:	6f                   	outsl  %ds:(%rsi),(%dx)
 145:	6e                   	outsb  %ds:(%rsi),(%dx)
 146:	0a 00                	or     (%rax),%al
 148:	53                   	push   %rbx
 149:	74 61                	je     1ac <__PRETTY_FUNCTION__.5520-0x34c>
 14b:	72 74                	jb     1c1 <__PRETTY_FUNCTION__.5520-0x337>
 14d:	65 64 20 25 64 20 6c 	gs and %ah,%fs:0x6f6c2064(%rip)        # 6f6c21b9 <libkdump_spectre_read+0x6f6be3d9>
 154:	6f 
 155:	61                   	(bad)  
 156:	64 20 74 68 72       	and    %dh,%fs:0x72(%rax,%rbp,2)
 15b:	65 61                	gs (bad) 
 15d:	64 73 0a             	fs jae 16a <__PRETTY_FUNCTION__.5520-0x38e>
	...
 168:	46 61                	rex.RX (bad) 
 16a:	69 6c 65 64 20 74 6f 	imul   $0x206f7420,0x64(%rbp,%riz,2),%ebp
 171:	20 
 172:	73 65                	jae    1d9 <__PRETTY_FUNCTION__.5520-0x31f>
 174:	74 75                	je     1eb <__PRETTY_FUNCTION__.5520-0x30d>
 176:	70 20                	jo     198 <__PRETTY_FUNCTION__.5520-0x360>
 178:	73 69                	jae    1e3 <__PRETTY_FUNCTION__.5520-0x315>
 17a:	67 6e                	outsb  %ds:(%esi),(%dx)
 17c:	61                   	(bad)  
 17d:	6c                   	insb   (%dx),%es:(%rdi)
 17e:	20 68 61             	and    %ch,0x61(%rax)
 181:	6e                   	outsb  %ds:(%rsi),(%dx)
 182:	64 6c                	fs insb (%dx),%es:(%rdi)
 184:	65 72 0a             	gs jb  191 <__PRETTY_FUNCTION__.5520-0x367>
 187:	00 53 75             	add    %dl,0x75(%rbx)
 18a:	63 63 65             	movslq 0x65(%rbx),%esp
 18d:	73 73                	jae    202 <__PRETTY_FUNCTION__.5520-0x2f6>
 18f:	66 75 6c             	data16 jne 1fe <__PRETTY_FUNCTION__.5520-0x2fa>
 192:	6c                   	insb   (%dx),%es:(%rdi)
 193:	79 20                	jns    1b5 <__PRETTY_FUNCTION__.5520-0x343>
 195:	73 65                	jae    1fc <__PRETTY_FUNCTION__.5520-0x2fc>
 197:	74 75                	je     20e <__PRETTY_FUNCTION__.5520-0x2ea>
 199:	70 20                	jo     1bb <__PRETTY_FUNCTION__.5520-0x33d>
 19b:	73 69                	jae    206 <__PRETTY_FUNCTION__.5520-0x2f2>
 19d:	67 6e                	outsb  %ds:(%esi),(%dx)
 19f:	61                   	(bad)  
 1a0:	6c                   	insb   (%dx),%es:(%rdi)
 1a1:	20 68 61             	and    %ch,0x61(%rax)
 1a4:	6e                   	outsb  %ds:(%rsi),(%dx)
 1a5:	64 6c                	fs insb (%dx),%es:(%rdi)
 1a7:	65 72 0a             	gs jb  1b4 <__PRETTY_FUNCTION__.5520-0x344>
 1aa:	00 2f                	add    %ch,(%rdi)
 1ac:	70 72                	jo     220 <__PRETTY_FUNCTION__.5520-0x2d8>
 1ae:	6f                   	outsl  %ds:(%rsi),(%dx)
 1af:	63 2f                	movslq (%rdi),%ebp
 1b1:	73 65                	jae    218 <__PRETTY_FUNCTION__.5520-0x2e0>
 1b3:	74 65                	je     21a <__PRETTY_FUNCTION__.5520-0x2de>
 1b5:	78 65                	js     21c <__PRETTY_FUNCTION__.5520-0x2dc>
 1b7:	63 00                	movslq (%rax),%eax
 1b9:	6c                   	insb   (%dx),%es:(%rdi)
 1ba:	69 62 6b 64 75 6d 70 	imul   $0x706d7564,0x6b(%rdx),%esp
 1c1:	2e 63 00             	movslq %cs:(%rax),%eax
 1c4:	73 65                	jae    22b <__PRETTY_FUNCTION__.5520-0x2cd>
 1c6:	74 65                	je     22d <__PRETTY_FUNCTION__.5520-0x2cb>
 1c8:	78 65                	js     22f <__PRETTY_FUNCTION__.5520-0x2c9>
 1ca:	63 20                	movslq (%rax),%esp
 1cc:	3e 3d 20 30 00 00    	ds cmp $0x3020,%eax
 1d2:	00 00                	add    %al,(%rax)
 1d4:	00 00                	add    %al,(%rax)
 1d6:	00 00                	add    %al,(%rax)
 1d8:	45 76 65             	rex.RB jbe 240 <__PRETTY_FUNCTION__.5520-0x2b8>
 1db:	72 79                	jb     256 <__PRETTY_FUNCTION__.5520-0x2a2>
 1dd:	74 68                	je     247 <__PRETTY_FUNCTION__.5520-0x2b1>
 1df:	69 6e 67 20 69 73 20 	imul   $0x20736920,0x67(%rsi),%ebp
 1e6:	63 6c 65 61          	movslq 0x61(%rbp,%riz,2),%ebp
 1ea:	6e                   	outsb  %ds:(%rsi),(%dx)
 1eb:	65 64 20 75 70       	gs and %dh,%fs:0x70(%rbp)
 1f0:	2c 20                	sub    $0x20,%al
 1f2:	67 6f                	outsl  %ds:(%esi),(%dx)
 1f4:	6f                   	outsl  %ds:(%rsi),(%dx)
 1f5:	64 20 62 79          	and    %ah,%fs:0x79(%rdx)
 1f9:	65 21 0a             	and    %ecx,%gs:(%rdx)
 1fc:	00 00                	add    %al,(%rax)
 1fe:	00 00                	add    %al,(%rax)
 200:	70 68                	jo     26a <__PRETTY_FUNCTION__.5520-0x28e>
 202:	79 73                	jns    277 <__PRETTY_FUNCTION__.5520-0x281>
 204:	5f                   	pop    %rdi
 205:	74 6f                	je     276 <__PRETTY_FUNCTION__.5520-0x282>
 207:	5f                   	pop    %rdi
 208:	76 69                	jbe    273 <__PRETTY_FUNCTION__.5520-0x285>
 20a:	72 74                	jb     280 <__PRETTY_FUNCTION__.5520-0x278>
 20c:	20 61 72             	and    %ah,0x72(%rcx)
 20f:	67 75 6d             	addr32 jne 27f <__PRETTY_FUNCTION__.5520-0x279>
 212:	65 6e                	outsb  %gs:(%rsi),(%dx)
 214:	74 20                	je     236 <__PRETTY_FUNCTION__.5520-0x2c2>
 216:	69 73 20 3e 20 36 34 	imul   $0x3436203e,0x20(%rbx),%esi
 21d:	20 54 42 0a          	and    %dl,0xa(%rdx,%rax,2)
 221:	00 52 65             	add    %dl,0x65(%rdx)
 224:	61                   	(bad)  
 225:	64 20 76 61          	and    %dh,%fs:0x61(%rsi)
 229:	6c                   	insb   (%dx),%es:(%rdi)
 22a:	75 65                	jne    291 <__PRETTY_FUNCTION__.5520-0x267>
 22c:	3a 20                	cmp    (%rax),%ah
 22e:	00 25 66 20 00 3b    	add    %ah,0x3b002066(%rip)        # 3b00229a <libkdump_spectre_read+0x3affe4ba>
 234:	20 00                	and    %al,(%rax)
 236:	61                   	(bad)  
 237:	63 63 65             	movslq 0x65(%rbx),%esp
 23a:	73 73                	jae    2af <__PRETTY_FUNCTION__.5520-0x249>
 23c:	65 64 3a 20          	gs cmp %fs:(%rax),%ah
 240:	25 66 0a 00 72       	and    $0x72000a66,%eax
 245:	65 73 5f             	gs jae 2a7 <__PRETTY_FUNCTION__.5520-0x251>
 248:	73 74                	jae    2be <__PRETTY_FUNCTION__.5520-0x23a>
 24a:	61                   	(bad)  
 24b:	74 5b                	je     2a8 <__PRETTY_FUNCTION__.5520-0x250>
 24d:	25 78 5d 20 3d       	and    $0x3d205d78,%eax
 252:	20 25 64 0a 00 70    	and    %ah,0x70000a64(%rip)        # 70000cbc <libkdump_spectre_read+0x6fffcedc>
 258:	6b 65 79 5f          	imul   $0x5f,0x79(%rbp),%esp
 25c:	73 65                	jae    2c3 <__PRETTY_FUNCTION__.5520-0x235>
 25e:	74 00                	je     260 <__PRETTY_FUNCTION__.5520-0x298>
 260:	70 6b                	jo     2cd <__PRETTY_FUNCTION__.5520-0x22b>
 262:	65 79 5f             	gs jns 2c4 <__PRETTY_FUNCTION__.5520-0x234>
 265:	6d                   	insl   (%dx),%es:(%rdi)
 266:	70 72                	jo     2da <__PRETTY_FUNCTION__.5520-0x21e>
 268:	6f                   	outsl  %ds:(%rsi),(%dx)
 269:	74 65                	je     2d0 <__PRETTY_FUNCTION__.5520-0x228>
 26b:	63 74 00 70          	movslq 0x70(%rax,%rax,1),%esi
 26f:	6b 65 79 5f          	imul   $0x5f,0x79(%rbp),%esp
 273:	66 72 65             	data16 jb 2db <__PRETTY_FUNCTION__.5520-0x21d>
 276:	65 00 30             	add    %dh,%gs:(%rax)
 279:	78 25                	js     2a0 <__PRETTY_FUNCTION__.5520-0x258>
 27b:	78 20                	js     29d <__PRETTY_FUNCTION__.5520-0x25b>
 27d:	2d 20 25 64 3b       	sub    $0x3b642520,%eax
 282:	20 30                	and    %dh,(%rax)
 284:	78 30                	js     2b6 <__PRETTY_FUNCTION__.5520-0x242>
 286:	20 2d 20 25 64 0a    	and    %ch,0xa642520(%rip)        # a6427ac <libkdump_spectre_read+0xa63e9cc>
	...
 2c4:	63 6f 64             	movslq 0x64(%rdi),%ebp
 2c7:	65 5f                	gs pop %rdi
 2c9:	73 65                	jae    330 <__PRETTY_FUNCTION__.5520-0x1c8>
 2cb:	71 5f                	jno    32c <__PRETTY_FUNCTION__.5520-0x1cc>
 2cd:	61                   	(bad)  
 2ce:	64 64 72 3a          	fs fs jb 30c <__PRETTY_FUNCTION__.5520-0x1ec>
 2d2:	20 30                	and    %dh,(%rax)
 2d4:	78 25                	js     2fb <__PRETTY_FUNCTION__.5520-0x1fd>
 2d6:	6c                   	insb   (%dx),%es:(%rdi)
 2d7:	78 0a                	js     2e3 <__PRETTY_FUNCTION__.5520-0x215>
 2d9:	00 00                	add    %al,(%rax)
 2db:	00 00                	add    %al,(%rax)
 2dd:	00 00                	add    %al,(%rax)
 2df:	00 6d 70             	add    %ch,0x70(%rbp)
 2e2:	72 6f                	jb     353 <__PRETTY_FUNCTION__.5520-0x1a5>
 2e4:	74 65                	je     34b <__PRETTY_FUNCTION__.5520-0x1ad>
 2e6:	63 74 28 28          	movslq 0x28(%rax,%rbp,1),%esi
 2ea:	76 6f                	jbe    35b <__PRETTY_FUNCTION__.5520-0x19d>
 2ec:	69 64 20 2a 29 28 28 	imul   $0x63282829,0x2a(%rax,%riz,1),%esp
 2f3:	63 
 2f4:	6f                   	outsl  %ds:(%rsi),(%dx)
 2f5:	64 65 5f             	fs gs pop %rdi
 2f8:	73 65                	jae    35f <__PRETTY_FUNCTION__.5520-0x199>
 2fa:	71 5f                	jno    35b <__PRETTY_FUNCTION__.5520-0x19d>
 2fc:	61                   	(bad)  
 2fd:	64 64 72 20          	fs fs jb 321 <__PRETTY_FUNCTION__.5520-0x1d7>
 301:	3e 3e 20 31          	ds and %dh,%ds:(%rcx)
 305:	32 29                	xor    (%rcx),%ch
 307:	20 3c 3c             	and    %bh,(%rsp,%rdi,1)
 30a:	20 31                	and    %dh,(%rcx)
 30c:	32 29                	xor    (%rcx),%ch
 30e:	2c 20                	sub    $0x20,%al
 310:	30 78 31             	xor    %bh,0x31(%rax)
 313:	30 30                	xor    %dh,(%rax)
 315:	30 2c 20             	xor    %ch,(%rax,%riz,1)
 318:	50                   	push   %rax
 319:	52                   	push   %rdx
 31a:	4f 54                	rex.WRXB push %r12
 31c:	5f                   	pop    %rdi
 31d:	52                   	push   %rdx
 31e:	45                   	rex.RB
 31f:	41                   	rex.B
 320:	44 20 7c 20 50       	and    %r15b,0x50(%rax,%riz,1)
 325:	52                   	push   %rdx
 326:	4f 54                	rex.WRXB push %r12
 328:	5f                   	pop    %rdi
 329:	57                   	push   %rdi
 32a:	52                   	push   %rdx
 32b:	49 54                	rex.WB push %r12
 32d:	45 20 7c 20 50       	and    %r15b,0x50(%r8,%riz,1)
 332:	52                   	push   %rdx
 333:	4f 54                	rex.WRXB push %r12
 335:	5f                   	pop    %rdi
 336:	45 58                	rex.RB pop %r8
 338:	45                   	rex.RB
 339:	43 29 20             	rex.XB sub %esp,(%r8)
 33c:	3d 3d 20 30 00       	cmp    $0x30203d,%eax
 341:	00 00                	add    %al,(%rax)
 343:	00 00                	add    %al,(%rax)
 345:	00 00                	add    %al,(%rax)
 347:	00 6d 70             	add    %ch,0x70(%rbp)
 34a:	72 6f                	jb     3bb <__PRETTY_FUNCTION__.5520-0x13d>
 34c:	74 65                	je     3b3 <__PRETTY_FUNCTION__.5520-0x145>
 34e:	63 74 28 28          	movslq 0x28(%rax,%rbp,1),%esi
 352:	76 6f                	jbe    3c3 <__PRETTY_FUNCTION__.5520-0x135>
 354:	69 64 20 2a 29 28 28 	imul   $0x61282829,0x2a(%rax,%riz,1),%esp
 35b:	61 
 35c:	64 64 72 20          	fs fs jb 380 <__PRETTY_FUNCTION__.5520-0x178>
 360:	3e 3e 20 31          	ds and %dh,%ds:(%rcx)
 364:	32 29                	xor    (%rcx),%ch
 366:	20 3c 3c             	and    %bh,(%rsp,%rdi,1)
 369:	20 31                	and    %dh,(%rcx)
 36b:	32 29                	xor    (%rcx),%ch
 36d:	2c 20                	sub    $0x20,%al
 36f:	30 78 31             	xor    %bh,0x31(%rax)
 372:	30 30                	xor    %dh,(%rax)
 374:	30 2c 20             	xor    %ch,(%rax,%riz,1)
 377:	50                   	push   %rax
 378:	52                   	push   %rdx
 379:	4f 54                	rex.WRXB push %r12
 37b:	5f                   	pop    %rdi
 37c:	52                   	push   %rdx
 37d:	45                   	rex.RB
 37e:	41                   	rex.B
 37f:	44 29 20             	sub    %r12d,(%rax)
 382:	3d 3d 20 30 00       	cmp    $0x30203d,%eax
 387:	70 72                	jo     3fb <__PRETTY_FUNCTION__.5520-0xfd>
 389:	65 70 61             	gs jo  3ed <__PRETTY_FUNCTION__.5520-0x10b>
 38c:	72 61                	jb     3ef <__PRETTY_FUNCTION__.5520-0x109>
 38e:	74 69                	je     3f9 <__PRETTY_FUNCTION__.5520-0xff>
 390:	6f                   	outsl  %ds:(%rsi),(%dx)
 391:	6e                   	outsb  %ds:(%rsi),(%dx)
 392:	20 64 6f 6e          	and    %ah,0x6e(%rdi,%rbp,2)
 396:	65 00 5b 21          	add    %bl,%gs:0x21(%rbx)
 39a:	5d                   	pop    %rbp
 39b:	20 55 6e             	and    %dl,0x6e(%rbp)
 39e:	61                   	(bad)  
 39f:	62                   	(bad)  
 3a0:	6c                   	insb   (%dx),%es:(%rdi)
 3a1:	65 20 74 6f 20       	and    %dh,%gs:0x20(%rdi,%rbp,2)
 3a6:	63 61 70             	movslq 0x70(%rcx),%esp
 3a9:	74 75                	je     420 <__PRETTY_FUNCTION__.5520-0xd8>
 3ab:	72 65                	jb     412 <__PRETTY_FUNCTION__.5520-0xe6>
 3ad:	20 61 6e             	and    %ah,0x6e(%rcx)
 3b0:	79 74                	jns    426 <__PRETTY_FUNCTION__.5520-0xd2>
 3b2:	68 69 6e 67 20       	pushq  $0x20676e69
 3b7:	77 69                	ja     422 <__PRETTY_FUNCTION__.5520-0xd6>
 3b9:	74 68                	je     423 <__PRETTY_FUNCTION__.5520-0xd5>
 3bb:	20 63 6f             	and    %ah,0x6f(%rbx)
 3be:	76 65                	jbe    425 <__PRETTY_FUNCTION__.5520-0xd3>
 3c0:	72 74                	jb     436 <__PRETTY_FUNCTION__.5520-0xc2>
 3c2:	20 63 68             	and    %ah,0x68(%rbx)
 3c5:	61                   	(bad)  
 3c6:	6e                   	outsb  %ds:(%rsi),(%dx)
 3c7:	6e                   	outsb  %ds:(%rsi),(%dx)
 3c8:	65 6c                	gs insb (%dx),%es:(%rdi)
 3ca:	21 00                	and    %eax,(%rax)
 3cc:	00 00                	add    %al,(%rax)
 3ce:	00 00                	add    %al,(%rax)
 3d0:	77 69                	ja     43b <__PRETTY_FUNCTION__.5520-0xbd>
 3d2:	6e                   	outsb  %ds:(%rsi),(%dx)
 3d3:	64 6f                	outsl  %fs:(%rsi),(%dx)
 3d5:	77 5f                	ja     436 <__PRETTY_FUNCTION__.5520-0xc2>
 3d7:	73 69                	jae    442 <__PRETTY_FUNCTION__.5520-0xb6>
 3d9:	7a 65                	jp     440 <__PRETTY_FUNCTION__.5520-0xb8>
 3db:	5f                   	pop    %rdi
 3dc:	73 63                	jae    441 <__PRETTY_FUNCTION__.5520-0xb7>
 3de:	6f                   	outsl  %ds:(%rsi),(%dx)
 3df:	72 65                	jb     446 <__PRETTY_FUNCTION__.5520-0xb2>
 3e1:	5b                   	pop    %rbx
 3e2:	30 78 25             	xor    %bh,0x25(%rax)
 3e5:	78 5d                	js     444 <__PRETTY_FUNCTION__.5520-0xb4>
 3e7:	20 3d 20 30 78 25    	and    %bh,0x25783020(%rip)        # 2578340d <libkdump_spectre_read+0x2577f62d>
 3ed:	64 0a 00             	or     %fs:(%rax),%al
	...
 420:	30 78 34             	xor    %bh,0x34(%rax)
 423:	32 3a                	xor    (%rdx),%bh
 425:	20 25 64 2c 20 30    	and    %ah,0x30202c64(%rip)        # 3020308f <libkdump_spectre_read+0x301ff2af>
 42b:	78 30                	js     45d <__PRETTY_FUNCTION__.5520-0x9b>
 42d:	3a 20                	cmp    (%rax),%ah
 42f:	25 64 2c 20 30       	and    $0x30202c64,%eax
 434:	78 31                	js     467 <__PRETTY_FUNCTION__.5520-0x91>
 436:	3a 20                	cmp    (%rax),%ah
 438:	25 64 0a 00 78       	and    $0x78000a64,%eax
 43d:	70 20                	jo     45f <__PRETTY_FUNCTION__.5520-0x99>
 43f:	40 25 70 0a 00 78    	rex and $0x78000a70,%eax
 445:	70 31                	jo     478 <__PRETTY_FUNCTION__.5520-0x80>
 447:	20 40 25             	and    %al,0x25(%rax)
 44a:	70 20                	jo     46c <__PRETTY_FUNCTION__.5520-0x8c>
 44c:	2d 3e 20 25 6c       	sub    $0x6c25203e,%eax
 451:	78 0a                	js     45d <__PRETTY_FUNCTION__.5520-0x9b>
 453:	00 78 70             	add    %bh,0x70(%rax)
 456:	32 20                	xor    (%rax),%ah
 458:	40 25 70 20 2d 3e    	rex and $0x3e2d2070,%eax
 45e:	20 25 6c 78 0a 00    	and    %ah,0xa786c(%rip)        # a7cd0 <libkdump_spectre_read+0xa3ef0>
 464:	78 70                	js     4d6 <__PRETTY_FUNCTION__.5520-0x22>
 466:	33 20                	xor    (%rax),%esp
 468:	40 25 70 20 2d 3e    	rex and $0x3e2d2070,%eax
 46e:	20 25 6c 78 0a 00    	and    %ah,0xa786c(%rip)        # a7ce0 <libkdump_spectre_read+0xa3f00>
 474:	78 70                	js     4e6 <__PRETTY_FUNCTION__.5520-0x12>
 476:	34 20                	xor    $0x20,%al
 478:	40 25 70 20 2d 3e    	rex and $0x3e2d2070,%eax
 47e:	20 25 6c 78 0a 00    	and    %ah,0xa786c(%rip)        # a7cf0 <libkdump_spectre_read+0xa3f10>
 484:	53                   	push   %rbx
 485:	75 63                	jne    4ea <__PRETTY_FUNCTION__.5520-0xe>
 487:	63 65 73             	movslq 0x73(%rbp),%esp
 48a:	73 00                	jae    48c <__PRETTY_FUNCTION__.5520-0x6c>
 48c:	55                   	push   %rbp
 48d:	6e                   	outsb  %ds:(%rsi),(%dx)
 48e:	63 6c 65 61          	movslq 0x61(%rbp,%riz,2),%ebp
 492:	72 00                	jb     494 <__PRETTY_FUNCTION__.5520-0x64>
 494:	25 73 3a 20 00       	and    $0x203a73,%eax
 499:	30 78 25             	xor    %bh,0x25(%rax)
 49c:	30 32                	xor    %dh,(%rdx)
 49e:	58                   	pop    %rax
 49f:	3d e2 80 99 25       	cmp    $0x259980e2,%eax
 4a4:	63 e2                	movslq %edx,%esp
 4a6:	80 99 20 73 63 6f 72 	sbbb   $0x72,0x6f637320(%rcx)
 4ad:	65 3d 25 64 20 00    	gs cmp $0x206425,%eax
 4b3:	00 00                	add    %al,(%rax)
 4b5:	00 00                	add    %al,(%rax)
 4b7:	00 28                	add    %ch,(%rax)
 4b9:	73 65                	jae    520 <__PRETTY_FUNCTION__.5664+0x10>
 4bb:	63 6f 6e             	movslq 0x6e(%rdi),%ebp
 4be:	64 20 62 65          	and    %ah,%fs:0x65(%rdx)
 4c2:	73 74                	jae    538 <__PRETTY_FUNCTION__.24919+0x8>
 4c4:	3a 20                	cmp    (%rax),%ah
 4c6:	30 78 25             	xor    %bh,0x25(%rax)
 4c9:	30 32                	xor    %dh,(%rdx)
 4cb:	58                   	pop    %rax
 4cc:	3d e2 80 99 25       	cmp    $0x259980e2,%eax
 4d1:	63 e2                	movslq %edx,%esp
 4d3:	80 99 20 73 63 6f 72 	sbbb   $0x72,0x6f637320(%rcx)
 4da:	65 3d 25 64 29 00    	gs cmp $0x296425,%eax
 4e0:	74 72                	je     554 <__PRETTY_FUNCTION__.24919+0x24>
 4e2:	79 20                	jns    504 <__PRETTY_FUNCTION__.5520+0xc>
 4e4:	25 64 0a 00 25       	and    $0x25000a64,%eax
 4e9:	64 20 63 6f          	and    %ah,%fs:0x6f(%rbx)
 4ed:	75 6e                	jne    55d <__PRETTY_FUNCTION__.24919+0x2d>
 4ef:	74 20                	je     511 <__PRETTY_FUNCTION__.5664+0x1>
 4f1:	25 64 0a 00 00       	and    $0xa64,%eax
	...

00000000000004f8 <__PRETTY_FUNCTION__.5520>:
 4f8:	6c                   	insb   (%dx),%es:(%rdi)
 4f9:	69 62 6b 64 75 6d 70 	imul   $0x706d7564,0x6b(%rdx),%esp
 500:	5f                   	pop    %rdi
 501:	69 6e 69 74 00 00 00 	imul   $0x74,0x69(%rsi),%ebp
	...

0000000000000510 <__PRETTY_FUNCTION__.5664>:
 510:	6c                   	insb   (%dx),%es:(%rdi)
 511:	69 62 6b 64 75 6d 70 	imul   $0x706d7564,0x6b(%rdx),%esp
 518:	5f                   	pop    %rdi
 519:	77 69                	ja     584 <__PRETTY_FUNCTION__.24919+0x54>
 51b:	6e                   	outsb  %ds:(%rsi),(%dx)
 51c:	64 6f                	outsl  %fs:(%rsi),(%dx)
 51e:	77 5f                	ja     57f <__PRETTY_FUNCTION__.24919+0x4f>
 520:	6d                   	insl   (%dx),%es:(%rdi)
 521:	65 61                	gs (bad) 
 523:	73 75                	jae    59a <__PRETTY_FUNCTION__.24919+0x6a>
 525:	72 65                	jb     58c <__PRETTY_FUNCTION__.24919+0x5c>
	...

0000000000000530 <__PRETTY_FUNCTION__.24919>:
 530:	6c                   	insb   (%dx),%es:(%rdi)
 531:	69 62 6b 64 75 6d 70 	imul   $0x706d7564,0x6b(%rdx),%esp
 538:	5f                   	pop    %rdi
 539:	73 70                	jae    5ab <wrpkru+0x8>
 53b:	65 63 74 72 65       	movslq %gs:0x65(%rdx,%rsi,2),%esi
 540:	5f                   	pop    %rdi
 541:	72 65                	jb     5a8 <wrpkru+0x5>
 543:	61                   	(bad)  
 544:	64                   	fs
	...

Disassembly of section .comment:

0000000000000000 <.comment>:
   0:	00 47 43             	add    %al,0x43(%rdi)
   3:	43 3a 20             	rex.XB cmp (%r8),%spl
   6:	28 55 62             	sub    %dl,0x62(%rbp)
   9:	75 6e                	jne    79 <buf+0x19>
   b:	74 75                	je     82 <buf+0x22>
   d:	20 35 2e 34 2e 30    	and    %dh,0x302e342e(%rip)        # 302e3441 <libkdump_spectre_read+0x302df661>
  13:	2d 36 75 62 75       	sub    $0x75627536,%eax
  18:	6e                   	outsb  %ds:(%rsi),(%dx)
  19:	74 75                	je     90 <buf+0x30>
  1b:	31 7e 31             	xor    %edi,0x31(%rsi)
  1e:	36 2e 30 34 2e       	ss xor %dh,%cs:(%rsi,%rbp,1)
  23:	31 32                	xor    %esi,(%rdx)
  25:	29 20                	sub    %esp,(%rax)
  27:	35 2e 34 2e 30       	xor    $0x302e342e,%eax
  2c:	20 32                	and    %dh,(%rdx)
  2e:	30 31                	xor    %dh,(%rcx)
  30:	36 30 36             	xor    %dh,%ss:(%rsi)
  33:	30 39                	xor    %bh,(%rcx)
	...

Disassembly of section .eh_frame:

0000000000000000 <.eh_frame>:
   0:	14 00                	adc    $0x0,%al
   2:	00 00                	add    %al,(%rax)
   4:	00 00                	add    %al,(%rax)
   6:	00 00                	add    %al,(%rax)
   8:	01 7a 52             	add    %edi,0x52(%rdx)
   b:	00 01                	add    %al,(%rcx)
   d:	78 10                	js     1f <.eh_frame+0x1f>
   f:	01 1b                	add    %ebx,(%rbx)
  11:	0c 07                	or     $0x7,%al
  13:	08 90 01 00 00 1c    	or     %dl,0x1c000001(%rax)
  19:	00 00                	add    %al,(%rax)
  1b:	00 1c 00             	add    %bl,(%rax,%rax,1)
  1e:	00 00                	add    %al,(%rax)
  20:	00 00                	add    %al,(%rax)
  22:	00 00                	add    %al,(%rax)
  24:	3f                   	(bad)  
  25:	00 00                	add    %al,(%rax)
  27:	00 00                	add    %al,(%rax)
  29:	41 0e                	rex.B (bad) 
  2b:	10 86 02 43 0d 06    	adc    %al,0x60d4302(%rsi)
  31:	7a 0c                	jp     3f <.eh_frame+0x3f>
  33:	07                   	(bad)  
  34:	08 00                	or     %al,(%rax)
  36:	00 00                	add    %al,(%rax)
  38:	20 00                	and    %al,(%rax)
  3a:	00 00                	add    %al,(%rax)
  3c:	3c 00                	cmp    $0x0,%al
  3e:	00 00                	add    %al,(%rax)
  40:	00 00                	add    %al,(%rax)
  42:	00 00                	add    %al,(%rax)
  44:	ac                   	lods   %ds:(%rsi),%al
  45:	02 00                	add    (%rax),%al
  47:	00 00                	add    %al,(%rax)
  49:	41 0e                	rex.B (bad) 
  4b:	10 86 02 43 0d 06    	adc    %al,0x60d4302(%rsi)
  51:	41 83 03 03          	addl   $0x3,(%r11)
  55:	a6                   	cmpsb  %es:(%rdi),%ds:(%rsi)
  56:	02 0c 07             	add    (%rdi,%rax,1),%cl
  59:	08 00                	or     %al,(%rax)
  5b:	00 1c 00             	add    %bl,(%rax,%rax,1)
  5e:	00 00                	add    %al,(%rax)
  60:	60                   	(bad)  
  61:	00 00                	add    %al,(%rax)
  63:	00 00                	add    %al,(%rax)
  65:	00 00                	add    %al,(%rax)
  67:	00 32                	add    %dh,(%rdx)
  69:	00 00                	add    %al,(%rax)
  6b:	00 00                	add    %al,(%rax)
  6d:	41 0e                	rex.B (bad) 
  6f:	10 86 02 43 0d 06    	adc    %al,0x60d4302(%rsi)
  75:	41 83 03 6c          	addl   $0x6c,(%r11)
  79:	0c 07                	or     $0x7,%al
  7b:	08 1c 00             	or     %bl,(%rax,%rax,1)
  7e:	00 00                	add    %al,(%rax)
  80:	80 00 00             	addb   $0x0,(%rax)
  83:	00 00                	add    %al,(%rax)
  85:	00 00                	add    %al,(%rax)
  87:	00 37                	add    %dh,(%rdi)
  89:	00 00                	add    %al,(%rax)
  8b:	00 00                	add    %al,(%rax)
  8d:	41 0e                	rex.B (bad) 
  8f:	10 86 02 43 0d 06    	adc    %al,0x60d4302(%rsi)
  95:	41 83 03 71          	addl   $0x71,(%r11)
  99:	0c 07                	or     $0x7,%al
  9b:	08 1c 00             	or     %bl,(%rax,%rax,1)
  9e:	00 00                	add    %al,(%rax)
  a0:	a0 00 00 00 00 00 00 	movabs 0x3b00000000000000,%al
  a7:	00 3b 
  a9:	00 00                	add    %al,(%rax)
  ab:	00 00                	add    %al,(%rax)
  ad:	41 0e                	rex.B (bad) 
  af:	10 86 02 43 0d 06    	adc    %al,0x60d4302(%rsi)
  b5:	41 83 03 75          	addl   $0x75,(%r11)
  b9:	0c 07                	or     $0x7,%al
  bb:	08 1c 00             	or     %bl,(%rax,%rax,1)
  be:	00 00                	add    %al,(%rax)
  c0:	c0 00 00             	rolb   $0x0,(%rax)
  c3:	00 00                	add    %al,(%rax)
  c5:	00 00                	add    %al,(%rax)
  c7:	00 3d 00 00 00 00    	add    %bh,0x0(%rip)        # cd <.eh_frame+0xcd>
  cd:	41 0e                	rex.B (bad) 
  cf:	10 86 02 43 0d 06    	adc    %al,0x60d4302(%rsi)
  d5:	41 83 03 77          	addl   $0x77,(%r11)
  d9:	0c 07                	or     $0x7,%al
  db:	08 1c 00             	or     %bl,(%rax,%rax,1)
  de:	00 00                	add    %al,(%rax)
  e0:	e0 00                	loopne e2 <.eh_frame+0xe2>
  e2:	00 00                	add    %al,(%rax)
  e4:	00 00                	add    %al,(%rax)
  e6:	00 00                	add    %al,(%rax)
  e8:	35 00 00 00 00       	xor    $0x0,%eax
  ed:	41 0e                	rex.B (bad) 
  ef:	10 86 02 43 0d 06    	adc    %al,0x60d4302(%rsi)
  f5:	41 83 03 6f          	addl   $0x6f,(%r11)
  f9:	0c 07                	or     $0x7,%al
  fb:	08 1c 00             	or     %bl,(%rax,%rax,1)
  fe:	00 00                	add    %al,(%rax)
 100:	00 01                	add    %al,(%rcx)
 102:	00 00                	add    %al,(%rax)
 104:	00 00                	add    %al,(%rax)
 106:	00 00                	add    %al,(%rax)
 108:	36 00 00             	add    %al,%ss:(%rax)
 10b:	00 00                	add    %al,(%rax)
 10d:	41 0e                	rex.B (bad) 
 10f:	10 86 02 43 0d 06    	adc    %al,0x60d4302(%rsi)
 115:	41 83 03 70          	addl   $0x70,(%r11)
 119:	0c 07                	or     $0x7,%al
 11b:	08 1c 00             	or     %bl,(%rax,%rax,1)
 11e:	00 00                	add    %al,(%rax)
 120:	20 01                	and    %al,(%rcx)
 122:	00 00                	add    %al,(%rax)
 124:	00 00                	add    %al,(%rax)
 126:	00 00                	add    %al,(%rax)
 128:	39 00                	cmp    %eax,(%rax)
 12a:	00 00                	add    %al,(%rax)
 12c:	00 41 0e             	add    %al,0xe(%rcx)
 12f:	10 86 02 43 0d 06    	adc    %al,0x60d4302(%rsi)
 135:	41 83 03 73          	addl   $0x73,(%r11)
 139:	0c 07                	or     $0x7,%al
 13b:	08 1c 00             	or     %bl,(%rax,%rax,1)
 13e:	00 00                	add    %al,(%rax)
 140:	40 01 00             	rex add %eax,(%rax)
 143:	00 00                	add    %al,(%rax)
 145:	00 00                	add    %al,(%rax)
 147:	00 33                	add    %dh,(%rbx)
 149:	01 00                	add    %eax,(%rax)
 14b:	00 00                	add    %al,(%rax)
 14d:	41 0e                	rex.B (bad) 
 14f:	10 86 02 43 0d 06    	adc    %al,0x60d4302(%rsi)
 155:	03 2e                	add    (%rsi),%ebp
 157:	01 0c 07             	add    %ecx,(%rdi,%rax,1)
 15a:	08 00                	or     %al,(%rax)
 15c:	1c 00                	sbb    $0x0,%al
 15e:	00 00                	add    %al,(%rax)
 160:	60                   	(bad)  
 161:	01 00                	add    %eax,(%rax)
 163:	00 00                	add    %al,(%rax)
 165:	00 00                	add    %al,(%rax)
 167:	00 2a                	add    %ch,(%rdx)
 169:	00 00                	add    %al,(%rax)
 16b:	00 00                	add    %al,(%rax)
 16d:	41 0e                	rex.B (bad) 
 16f:	10 86 02 43 0d 06    	adc    %al,0x60d4302(%rsi)
 175:	65 0c 07             	gs or  $0x7,%al
 178:	08 00                	or     %al,(%rax)
 17a:	00 00                	add    %al,(%rax)
 17c:	1c 00                	sbb    $0x0,%al
 17e:	00 00                	add    %al,(%rax)
 180:	80 01 00             	addb   $0x0,(%rcx)
 183:	00 00                	add    %al,(%rax)
 185:	00 00                	add    %al,(%rax)
 187:	00 38                	add    %bh,(%rax)
 189:	00 00                	add    %al,(%rax)
 18b:	00 00                	add    %al,(%rax)
 18d:	41 0e                	rex.B (bad) 
 18f:	10 86 02 43 0d 06    	adc    %al,0x60d4302(%rsi)
 195:	73 0c                	jae    1a3 <.eh_frame+0x1a3>
 197:	07                   	(bad)  
 198:	08 00                	or     %al,(%rax)
 19a:	00 00                	add    %al,(%rax)
 19c:	1c 00                	sbb    $0x0,%al
 19e:	00 00                	add    %al,(%rax)
 1a0:	a0 01 00 00 00 00 00 	movabs 0xb600000000000001,%al
 1a7:	00 b6 
 1a9:	00 00                	add    %al,(%rax)
 1ab:	00 00                	add    %al,(%rax)
 1ad:	41 0e                	rex.B (bad) 
 1af:	10 86 02 43 0d 06    	adc    %al,0x60d4302(%rsi)
 1b5:	02 b1 0c 07 08 00    	add    0x8070c(%rcx),%dh
 1bb:	00 1c 00             	add    %bl,(%rax,%rax,1)
 1be:	00 00                	add    %al,(%rax)
 1c0:	c0 01 00             	rolb   $0x0,(%rcx)
 1c3:	00 00                	add    %al,(%rax)
 1c5:	00 00                	add    %al,(%rax)
 1c7:	00 b0 00 00 00 00    	add    %dh,0x0(%rax)
 1cd:	41 0e                	rex.B (bad) 
 1cf:	10 86 02 43 0d 06    	adc    %al,0x60d4302(%rsi)
 1d5:	02 ab 0c 07 08 00    	add    0x8070c(%rbx),%ch
 1db:	00 1c 00             	add    %bl,(%rax,%rax,1)
 1de:	00 00                	add    %al,(%rax)
 1e0:	e0 01                	loopne 1e3 <.eh_frame+0x1e3>
 1e2:	00 00                	add    %al,(%rax)
 1e4:	00 00                	add    %al,(%rax)
 1e6:	00 00                	add    %al,(%rax)
 1e8:	36 00 00             	add    %al,%ss:(%rax)
 1eb:	00 00                	add    %al,(%rax)
 1ed:	41 0e                	rex.B (bad) 
 1ef:	10 86 02 43 0d 06    	adc    %al,0x60d4302(%rsi)
 1f5:	71 0c                	jno    203 <.eh_frame+0x203>
 1f7:	07                   	(bad)  
 1f8:	08 00                	or     %al,(%rax)
 1fa:	00 00                	add    %al,(%rax)
 1fc:	1c 00                	sbb    $0x0,%al
 1fe:	00 00                	add    %al,(%rax)
 200:	00 02                	add    %al,(%rdx)
 202:	00 00                	add    %al,(%rax)
 204:	00 00                	add    %al,(%rax)
 206:	00 00                	add    %al,(%rax)
 208:	15 00 00 00 00       	adc    $0x0,%eax
 20d:	41 0e                	rex.B (bad) 
 20f:	10 86 02 43 0d 06    	adc    %al,0x60d4302(%rsi)
 215:	50                   	push   %rax
 216:	0c 07                	or     $0x7,%al
 218:	08 00                	or     %al,(%rax)
 21a:	00 00                	add    %al,(%rax)
 21c:	1c 00                	sbb    $0x0,%al
 21e:	00 00                	add    %al,(%rax)
 220:	20 02                	and    %al,(%rdx)
 222:	00 00                	add    %al,(%rax)
 224:	00 00                	add    %al,(%rax)
 226:	00 00                	add    %al,(%rax)
 228:	15 00 00 00 00       	adc    $0x0,%eax
 22d:	41 0e                	rex.B (bad) 
 22f:	10 86 02 43 0d 06    	adc    %al,0x60d4302(%rsi)
 235:	50                   	push   %rax
 236:	0c 07                	or     $0x7,%al
 238:	08 00                	or     %al,(%rax)
 23a:	00 00                	add    %al,(%rax)
 23c:	1c 00                	sbb    $0x0,%al
 23e:	00 00                	add    %al,(%rax)
 240:	40 02 00             	add    (%rax),%al
 243:	00 00                	add    %al,(%rax)
 245:	00 00                	add    %al,(%rax)
 247:	00 ba 01 00 00 00    	add    %bh,0x1(%rdx)
 24d:	41 0e                	rex.B (bad) 
 24f:	10 86 02 43 0d 06    	adc    %al,0x60d4302(%rsi)
 255:	03 b5 01 0c 07 08    	add    0x8070c01(%rbp),%esi
 25b:	00 1c 00             	add    %bl,(%rax,%rax,1)
 25e:	00 00                	add    %al,(%rax)
 260:	60                   	(bad)  
 261:	02 00                	add    (%rax),%al
 263:	00 00                	add    %al,(%rax)
 265:	00 00                	add    %al,(%rax)
 267:	00 0c 01             	add    %cl,(%rcx,%rax,1)
 26a:	00 00                	add    %al,(%rax)
 26c:	00 41 0e             	add    %al,0xe(%rcx)
 26f:	10 86 02 43 0d 06    	adc    %al,0x60d4302(%rsi)
 275:	03 07                	add    (%rdi),%eax
 277:	01 0c 07             	add    %ecx,(%rdi,%rax,1)
 27a:	08 00                	or     %al,(%rax)
 27c:	1c 00                	sbb    $0x0,%al
 27e:	00 00                	add    %al,(%rax)
 280:	80 02 00             	addb   $0x0,(%rdx)
 283:	00 00                	add    %al,(%rax)
 285:	00 00                	add    %al,(%rax)
 287:	00 71 00             	add    %dh,0x0(%rcx)
 28a:	00 00                	add    %al,(%rax)
 28c:	00 41 0e             	add    %al,0xe(%rcx)
 28f:	10 86 02 43 0d 06    	adc    %al,0x60d4302(%rsi)
 295:	02 6c 0c 07          	add    0x7(%rsp,%rcx,1),%ch
 299:	08 00                	or     %al,(%rax)
 29b:	00 1c 00             	add    %bl,(%rax,%rax,1)
 29e:	00 00                	add    %al,(%rax)
 2a0:	a0 02 00 00 00 00 00 	movabs 0x5a00000000000002,%al
 2a7:	00 5a 
 2a9:	00 00                	add    %al,(%rax)
 2ab:	00 00                	add    %al,(%rax)
 2ad:	41 0e                	rex.B (bad) 
 2af:	10 86 02 43 0d 06    	adc    %al,0x60d4302(%rsi)
 2b5:	02 55 0c             	add    0xc(%rbp),%dl
 2b8:	07                   	(bad)  
 2b9:	08 00                	or     %al,(%rax)
 2bb:	00 1c 00             	add    %bl,(%rax,%rax,1)
 2be:	00 00                	add    %al,(%rax)
 2c0:	c0 02 00             	rolb   $0x0,(%rdx)
 2c3:	00 00                	add    %al,(%rax)
 2c5:	00 00                	add    %al,(%rax)
 2c7:	00 5a 00             	add    %bl,0x0(%rdx)
 2ca:	00 00                	add    %al,(%rax)
 2cc:	00 41 0e             	add    %al,0xe(%rcx)
 2cf:	10 86 02 43 0d 06    	adc    %al,0x60d4302(%rsi)
 2d5:	02 55 0c             	add    0xc(%rbp),%dl
 2d8:	07                   	(bad)  
 2d9:	08 00                	or     %al,(%rax)
 2db:	00 1c 00             	add    %bl,(%rax,%rax,1)
 2de:	00 00                	add    %al,(%rax)
 2e0:	e0 02                	loopne 2e4 <.eh_frame+0x2e4>
 2e2:	00 00                	add    %al,(%rax)
 2e4:	00 00                	add    %al,(%rax)
 2e6:	00 00                	add    %al,(%rax)
 2e8:	5a                   	pop    %rdx
 2e9:	00 00                	add    %al,(%rax)
 2eb:	00 00                	add    %al,(%rax)
 2ed:	41 0e                	rex.B (bad) 
 2ef:	10 86 02 43 0d 06    	adc    %al,0x60d4302(%rsi)
 2f5:	02 55 0c             	add    0xc(%rbp),%dl
 2f8:	07                   	(bad)  
 2f9:	08 00                	or     %al,(%rax)
 2fb:	00 1c 00             	add    %bl,(%rax,%rax,1)
 2fe:	00 00                	add    %al,(%rax)
 300:	00 03                	add    %al,(%rbx)
 302:	00 00                	add    %al,(%rax)
 304:	00 00                	add    %al,(%rax)
 306:	00 00                	add    %al,(%rax)
 308:	5a                   	pop    %rdx
 309:	00 00                	add    %al,(%rax)
 30b:	00 00                	add    %al,(%rax)
 30d:	41 0e                	rex.B (bad) 
 30f:	10 86 02 43 0d 06    	adc    %al,0x60d4302(%rsi)
 315:	02 55 0c             	add    0xc(%rbp),%dl
 318:	07                   	(bad)  
 319:	08 00                	or     %al,(%rax)
 31b:	00 1c 00             	add    %bl,(%rax,%rax,1)
 31e:	00 00                	add    %al,(%rax)
 320:	20 03                	and    %al,(%rbx)
 322:	00 00                	add    %al,(%rax)
 324:	00 00                	add    %al,(%rax)
 326:	00 00                	add    %al,(%rax)
 328:	5a                   	pop    %rdx
 329:	00 00                	add    %al,(%rax)
 32b:	00 00                	add    %al,(%rax)
 32d:	41 0e                	rex.B (bad) 
 32f:	10 86 02 43 0d 06    	adc    %al,0x60d4302(%rsi)
 335:	02 55 0c             	add    0xc(%rbp),%dl
 338:	07                   	(bad)  
 339:	08 00                	or     %al,(%rax)
 33b:	00 1c 00             	add    %bl,(%rax,%rax,1)
 33e:	00 00                	add    %al,(%rax)
 340:	40 03 00             	rex add (%rax),%eax
 343:	00 00                	add    %al,(%rax)
 345:	00 00                	add    %al,(%rax)
 347:	00 5a 00             	add    %bl,0x0(%rdx)
 34a:	00 00                	add    %al,(%rax)
 34c:	00 41 0e             	add    %al,0xe(%rcx)
 34f:	10 86 02 43 0d 06    	adc    %al,0x60d4302(%rsi)
 355:	02 55 0c             	add    0xc(%rbp),%dl
 358:	07                   	(bad)  
 359:	08 00                	or     %al,(%rax)
 35b:	00 1c 00             	add    %bl,(%rax,%rax,1)
 35e:	00 00                	add    %al,(%rax)
 360:	60                   	(bad)  
 361:	03 00                	add    (%rax),%eax
 363:	00 00                	add    %al,(%rax)
 365:	00 00                	add    %al,(%rax)
 367:	00 5a 00             	add    %bl,0x0(%rdx)
 36a:	00 00                	add    %al,(%rax)
 36c:	00 41 0e             	add    %al,0xe(%rcx)
 36f:	10 86 02 43 0d 06    	adc    %al,0x60d4302(%rsi)
 375:	02 55 0c             	add    0xc(%rbp),%dl
 378:	07                   	(bad)  
 379:	08 00                	or     %al,(%rax)
 37b:	00 1c 00             	add    %bl,(%rax,%rax,1)
 37e:	00 00                	add    %al,(%rax)
 380:	80 03 00             	addb   $0x0,(%rbx)
 383:	00 00                	add    %al,(%rax)
 385:	00 00                	add    %al,(%rax)
 387:	00 4b 00             	add    %cl,0x0(%rbx)
 38a:	00 00                	add    %al,(%rax)
 38c:	00 41 0e             	add    %al,0xe(%rcx)
 38f:	10 86 02 43 0d 06    	adc    %al,0x60d4302(%rsi)
 395:	02 46 0c             	add    0xc(%rsi),%al
 398:	07                   	(bad)  
 399:	08 00                	or     %al,(%rax)
 39b:	00 1c 00             	add    %bl,(%rax,%rax,1)
 39e:	00 00                	add    %al,(%rax)
 3a0:	a0 03 00 00 00 00 00 	movabs 0x4b00000000000003,%al
 3a7:	00 4b 
 3a9:	00 00                	add    %al,(%rax)
 3ab:	00 00                	add    %al,(%rax)
 3ad:	41 0e                	rex.B (bad) 
 3af:	10 86 02 43 0d 06    	adc    %al,0x60d4302(%rsi)
 3b5:	02 46 0c             	add    0xc(%rsi),%al
 3b8:	07                   	(bad)  
 3b9:	08 00                	or     %al,(%rax)
 3bb:	00 1c 00             	add    %bl,(%rax,%rax,1)
 3be:	00 00                	add    %al,(%rax)
 3c0:	c0 03 00             	rolb   $0x0,(%rbx)
 3c3:	00 00                	add    %al,(%rax)
 3c5:	00 00                	add    %al,(%rax)
 3c7:	00 5a 00             	add    %bl,0x0(%rdx)
 3ca:	00 00                	add    %al,(%rax)
 3cc:	00 41 0e             	add    %al,0xe(%rcx)
 3cf:	10 86 02 43 0d 06    	adc    %al,0x60d4302(%rsi)
 3d5:	02 55 0c             	add    0xc(%rbp),%dl
 3d8:	07                   	(bad)  
 3d9:	08 00                	or     %al,(%rax)
 3db:	00 1c 00             	add    %bl,(%rax,%rax,1)
 3de:	00 00                	add    %al,(%rax)
 3e0:	e0 03                	loopne 3e5 <.eh_frame+0x3e5>
 3e2:	00 00                	add    %al,(%rax)
 3e4:	00 00                	add    %al,(%rax)
 3e6:	00 00                	add    %al,(%rax)
 3e8:	ac                   	lods   %ds:(%rsi),%al
 3e9:	00 00                	add    %al,(%rax)
 3eb:	00 00                	add    %al,(%rax)
 3ed:	41 0e                	rex.B (bad) 
 3ef:	10 86 02 43 0d 06    	adc    %al,0x60d4302(%rsi)
 3f5:	02 a7 0c 07 08 00    	add    0x8070c(%rdi),%ah
 3fb:	00 1c 00             	add    %bl,(%rax,%rax,1)
 3fe:	00 00                	add    %al,(%rax)
 400:	00 04 00             	add    %al,(%rax,%rax,1)
 403:	00 00                	add    %al,(%rax)
 405:	00 00                	add    %al,(%rax)
 407:	00 0e                	add    %cl,(%rsi)
 409:	00 00                	add    %al,(%rax)
 40b:	00 00                	add    %al,(%rax)
 40d:	41 0e                	rex.B (bad) 
 40f:	10 86 02 43 0d 06    	adc    %al,0x60d4302(%rsi)
 415:	49 0c 07             	rex.WB or $0x7,%al
 418:	08 00                	or     %al,(%rax)
 41a:	00 00                	add    %al,(%rax)
 41c:	18 00                	sbb    %al,(%rax)
 41e:	00 00                	add    %al,(%rax)
 420:	20 04 00             	and    %al,(%rax,%rax,1)
 423:	00 00                	add    %al,(%rax)
 425:	00 00                	add    %al,(%rax)
 427:	00 0b                	add    %cl,(%rbx)
 429:	00 00                	add    %al,(%rax)
 42b:	00 00                	add    %al,(%rax)
 42d:	41 0e                	rex.B (bad) 
 42f:	10 86 02 43 0d 06    	adc    %al,0x60d4302(%rsi)
 435:	00 00                	add    %al,(%rax)
 437:	00 18                	add    %bl,(%rax)
 439:	00 00                	add    %al,(%rax)
 43b:	00 3c 04             	add    %bh,(%rsp,%rax,1)
 43e:	00 00                	add    %al,(%rax)
 440:	00 00                	add    %al,(%rax)
 442:	00 00                	add    %al,(%rax)
 444:	13 00                	adc    (%rax),%eax
 446:	00 00                	add    %al,(%rax)
 448:	00 41 0e             	add    %al,0xe(%rcx)
 44b:	10 86 02 43 0d 06    	adc    %al,0x60d4302(%rsi)
 451:	00 00                	add    %al,(%rax)
 453:	00 18                	add    %bl,(%rax)
 455:	00 00                	add    %al,(%rax)
 457:	00 58 04             	add    %bl,0x4(%rax)
 45a:	00 00                	add    %al,(%rax)
 45c:	00 00                	add    %al,(%rax)
 45e:	00 00                	add    %al,(%rax)
 460:	13 00                	adc    (%rax),%eax
 462:	00 00                	add    %al,(%rax)
 464:	00 41 0e             	add    %al,0xe(%rcx)
 467:	10 86 02 43 0d 06    	adc    %al,0x60d4302(%rsi)
 46d:	00 00                	add    %al,(%rax)
 46f:	00 18                	add    %bl,(%rax)
 471:	00 00                	add    %al,(%rax)
 473:	00 74 04 00          	add    %dh,0x0(%rsp,%rax,1)
 477:	00 00                	add    %al,(%rax)
 479:	00 00                	add    %al,(%rax)
 47b:	00 dd                	add    %bl,%ch
 47d:	00 00                	add    %al,(%rax)
 47f:	00 00                	add    %al,(%rax)
 481:	41 0e                	rex.B (bad) 
 483:	10 86 02 43 0d 06    	adc    %al,0x60d4302(%rsi)
 489:	00 00                	add    %al,(%rax)
 48b:	00 1c 00             	add    %bl,(%rax,%rax,1)
 48e:	00 00                	add    %al,(%rax)
 490:	90                   	nop
 491:	04 00                	add    $0x0,%al
 493:	00 00                	add    %al,(%rax)
 495:	00 00                	add    %al,(%rax)
 497:	00 ff                	add    %bh,%bh
 499:	00 00                	add    %al,(%rax)
 49b:	00 00                	add    %al,(%rax)
 49d:	41 0e                	rex.B (bad) 
 49f:	10 86 02 43 0d 06    	adc    %al,0x60d4302(%rsi)
 4a5:	02 fa                	add    %dl,%bh
 4a7:	0c 07                	or     $0x7,%al
 4a9:	08 00                	or     %al,(%rax)
 4ab:	00 1c 00             	add    %bl,(%rax,%rax,1)
 4ae:	00 00                	add    %al,(%rax)
 4b0:	b0 04                	mov    $0x4,%al
 4b2:	00 00                	add    %al,(%rax)
 4b4:	00 00                	add    %al,(%rax)
 4b6:	00 00                	add    %al,(%rax)
 4b8:	0b 00                	or     (%rax),%eax
 4ba:	00 00                	add    %al,(%rax)
 4bc:	00 41 0e             	add    %al,0xe(%rcx)
 4bf:	10 86 02 43 0d 06    	adc    %al,0x60d4302(%rsi)
 4c5:	46 0c 07             	rex.RX or $0x7,%al
 4c8:	08 00                	or     %al,(%rax)
 4ca:	00 00                	add    %al,(%rax)
 4cc:	1c 00                	sbb    $0x0,%al
 4ce:	00 00                	add    %al,(%rax)
 4d0:	d0 04 00             	rolb   (%rax,%rax,1)
 4d3:	00 00                	add    %al,(%rax)
 4d5:	00 00                	add    %al,(%rax)
 4d7:	00 57 00             	add    %dl,0x0(%rdi)
 4da:	00 00                	add    %al,(%rax)
 4dc:	00 41 0e             	add    %al,0xe(%rcx)
 4df:	10 86 02 43 0d 06    	adc    %al,0x60d4302(%rsi)
 4e5:	02 52 0c             	add    0xc(%rdx),%dl
 4e8:	07                   	(bad)  
 4e9:	08 00                	or     %al,(%rax)
 4eb:	00 1c 00             	add    %bl,(%rax,%rax,1)
 4ee:	00 00                	add    %al,(%rax)
 4f0:	f0 04 00             	lock add $0x0,%al
 4f3:	00 00                	add    %al,(%rax)
 4f5:	00 00                	add    %al,(%rax)
 4f7:	00 1b                	add    %bl,(%rbx)
 4f9:	02 00                	add    (%rax),%al
 4fb:	00 00                	add    %al,(%rax)
 4fd:	41 0e                	rex.B (bad) 
 4ff:	10 86 02 43 0d 06    	adc    %al,0x60d4302(%rsi)
 505:	03 16                	add    (%rsi),%edx
 507:	02 0c 07             	add    (%rdi,%rax,1),%cl
 50a:	08 00                	or     %al,(%rax)
 50c:	1c 00                	sbb    $0x0,%al
 50e:	00 00                	add    %al,(%rax)
 510:	10 05 00 00 00 00    	adc    %al,0x0(%rip)        # 516 <.eh_frame+0x516>
 516:	00 00                	add    %al,(%rax)
 518:	74 00                	je     51a <.eh_frame+0x51a>
 51a:	00 00                	add    %al,(%rax)
 51c:	00 41 0e             	add    %al,0xe(%rcx)
 51f:	10 86 02 43 0d 06    	adc    %al,0x60d4302(%rsi)
 525:	02 6f 0c             	add    0xc(%rdi),%ch
 528:	07                   	(bad)  
 529:	08 00                	or     %al,(%rax)
 52b:	00 1c 00             	add    %bl,(%rax,%rax,1)
 52e:	00 00                	add    %al,(%rax)
 530:	30 05 00 00 00 00    	xor    %al,0x0(%rip)        # 536 <.eh_frame+0x536>
 536:	00 00                	add    %al,(%rax)
 538:	3f                   	(bad)  
 539:	00 00                	add    %al,(%rax)
 53b:	00 00                	add    %al,(%rax)
 53d:	41 0e                	rex.B (bad) 
 53f:	10 86 02 43 0d 06    	adc    %al,0x60d4302(%rsi)
 545:	7a 0c                	jp     553 <.eh_frame+0x553>
 547:	07                   	(bad)  
 548:	08 00                	or     %al,(%rax)
 54a:	00 00                	add    %al,(%rax)
 54c:	1c 00                	sbb    $0x0,%al
 54e:	00 00                	add    %al,(%rax)
 550:	50                   	push   %rax
 551:	05 00 00 00 00       	add    $0x0,%eax
 556:	00 00                	add    %al,(%rax)
 558:	76 00                	jbe    55a <.eh_frame+0x55a>
 55a:	00 00                	add    %al,(%rax)
 55c:	00 41 0e             	add    %al,0xe(%rcx)
 55f:	10 86 02 43 0d 06    	adc    %al,0x60d4302(%rsi)
 565:	02 71 0c             	add    0xc(%rcx),%dh
 568:	07                   	(bad)  
 569:	08 00                	or     %al,(%rax)
 56b:	00 18                	add    %bl,(%rax)
 56d:	00 00                	add    %al,(%rax)
 56f:	00 70 05             	add    %dh,0x5(%rax)
 572:	00 00                	add    %al,(%rax)
 574:	00 00                	add    %al,(%rax)
 576:	00 00                	add    %al,(%rax)
 578:	26 00 00             	add    %al,%es:(%rax)
 57b:	00 00                	add    %al,(%rax)
 57d:	41 0e                	rex.B (bad) 
 57f:	10 86 02 43 0d 06    	adc    %al,0x60d4302(%rsi)
 585:	00 00                	add    %al,(%rax)
 587:	00 1c 00             	add    %bl,(%rax,%rax,1)
 58a:	00 00                	add    %al,(%rax)
 58c:	8c 05 00 00 00 00    	mov    %es,0x0(%rip)        # 592 <.eh_frame+0x592>
 592:	00 00                	add    %al,(%rax)
 594:	6c                   	insb   (%dx),%es:(%rdi)
 595:	00 00                	add    %al,(%rax)
 597:	00 00                	add    %al,(%rax)
 599:	41 0e                	rex.B (bad) 
 59b:	10 86 02 43 0d 06    	adc    %al,0x60d4302(%rsi)
 5a1:	02 67 0c             	add    0xc(%rdi),%ah
 5a4:	07                   	(bad)  
 5a5:	08 00                	or     %al,(%rax)
 5a7:	00 1c 00             	add    %bl,(%rax,%rax,1)
 5aa:	00 00                	add    %al,(%rax)
 5ac:	ac                   	lods   %ds:(%rsi),%al
 5ad:	05 00 00 00 00       	add    $0x0,%eax
 5b2:	00 00                	add    %al,(%rax)
 5b4:	0d 04 00 00 00       	or     $0x4,%eax
 5b9:	41 0e                	rex.B (bad) 
 5bb:	10 86 02 43 0d 06    	adc    %al,0x60d4302(%rsi)
 5c1:	03 08                	add    (%rax),%ecx
 5c3:	04 0c                	add    $0xc,%al
 5c5:	07                   	(bad)  
 5c6:	08 00                	or     %al,(%rax)
 5c8:	1c 00                	sbb    $0x0,%al
 5ca:	00 00                	add    %al,(%rax)
 5cc:	cc                   	int3   
 5cd:	05 00 00 00 00       	add    $0x0,%eax
 5d2:	00 00                	add    %al,(%rax)
 5d4:	93                   	xchg   %eax,%ebx
 5d5:	00 00                	add    %al,(%rax)
 5d7:	00 00                	add    %al,(%rax)
 5d9:	41 0e                	rex.B (bad) 
 5db:	10 86 02 43 0d 06    	adc    %al,0x60d4302(%rsi)
 5e1:	02 8e 0c 07 08 00    	add    0x8070c(%rsi),%cl
 5e7:	00 1c 00             	add    %bl,(%rax,%rax,1)
 5ea:	00 00                	add    %al,(%rax)
 5ec:	ec                   	in     (%dx),%al
 5ed:	05 00 00 00 00       	add    $0x0,%eax
 5f2:	00 00                	add    %al,(%rax)
 5f4:	6b 00 00             	imul   $0x0,(%rax),%eax
 5f7:	00 00                	add    %al,(%rax)
 5f9:	41 0e                	rex.B (bad) 
 5fb:	10 86 02 43 0d 06    	adc    %al,0x60d4302(%rsi)
 601:	02 66 0c             	add    0xc(%rsi),%ah
 604:	07                   	(bad)  
 605:	08 00                	or     %al,(%rax)
 607:	00 1c 00             	add    %bl,(%rax,%rax,1)
 60a:	00 00                	add    %al,(%rax)
 60c:	0c 06                	or     $0x6,%al
 60e:	00 00                	add    %al,(%rax)
 610:	00 00                	add    %al,(%rax)
 612:	00 00                	add    %al,(%rax)
 614:	13 00                	adc    (%rax),%eax
 616:	00 00                	add    %al,(%rax)
 618:	00 41 0e             	add    %al,0xe(%rcx)
 61b:	10 86 02 43 0d 06    	adc    %al,0x60d4302(%rsi)
 621:	4e 0c 07             	rex.WRX or $0x7,%al
 624:	08 00                	or     %al,(%rax)
 626:	00 00                	add    %al,(%rax)
 628:	1c 00                	sbb    $0x0,%al
 62a:	00 00                	add    %al,(%rax)
 62c:	2c 06                	sub    $0x6,%al
 62e:	00 00                	add    %al,(%rax)
 630:	00 00                	add    %al,(%rax)
 632:	00 00                	add    %al,(%rax)
 634:	08 00                	or     %al,(%rax)
 636:	00 00                	add    %al,(%rax)
 638:	00 41 0e             	add    %al,0xe(%rcx)
 63b:	10 86 02 45 0d 06    	adc    %al,0x60d4502(%rsi)
 641:	41 0c 07             	rex.B or $0x7,%al
 644:	08 00                	or     %al,(%rax)
 646:	00 00                	add    %al,(%rax)
 648:	20 00                	and    %al,(%rax)
 64a:	00 00                	add    %al,(%rax)
 64c:	4c 06                	rex.WR (bad) 
 64e:	00 00                	add    %al,(%rax)
 650:	00 00                	add    %al,(%rax)
 652:	00 00                	add    %al,(%rax)
 654:	b0 03                	mov    $0x3,%al
 656:	00 00                	add    %al,(%rax)
 658:	00 41 0e             	add    %al,0xe(%rcx)
 65b:	10 86 02 43 0d 06    	adc    %al,0x60d4302(%rsi)
 661:	47 8c 03             	rex.RXB mov %es,(%r11)
 664:	83 04 03 a4          	addl   $0xffffffa4,(%rbx,%rax,1)
 668:	03 0c 07             	add    (%rdi,%rax,1),%ecx
 66b:	08 1c 00             	or     %bl,(%rax,%rax,1)
 66e:	00 00                	add    %al,(%rax)
 670:	70 06                	jo     678 <.eh_frame+0x678>
 672:	00 00                	add    %al,(%rax)
 674:	00 00                	add    %al,(%rax)
 676:	00 00                	add    %al,(%rax)
 678:	f0 01 00             	lock add %eax,(%rax)
 67b:	00 00                	add    %al,(%rax)
 67d:	41 0e                	rex.B (bad) 
 67f:	10 86 02 43 0d 06    	adc    %al,0x60d4302(%rsi)
 685:	03 eb                	add    %ebx,%ebp
 687:	01 0c 07             	add    %ecx,(%rdi,%rax,1)
 68a:	08 00                	or     %al,(%rax)
 68c:	1c 00                	sbb    $0x0,%al
 68e:	00 00                	add    %al,(%rax)
 690:	90                   	nop
 691:	06                   	(bad)  
 692:	00 00                	add    %al,(%rax)
 694:	00 00                	add    %al,(%rax)
 696:	00 00                	add    %al,(%rax)
 698:	30 00                	xor    %al,(%rax)
 69a:	00 00                	add    %al,(%rax)
 69c:	00 5d 0e             	add    %bl,0xe(%rbp)
 69f:	10 86 02 4a 0d 06    	adc    %al,0x60d4a02(%rsi)
 6a5:	46 c6                	rex.RX (bad) 
 6a7:	0c 07                	or     $0x7,%al
 6a9:	08 00                	or     %al,(%rax)
 6ab:	00 1c 00             	add    %bl,(%rax,%rax,1)
 6ae:	00 00                	add    %al,(%rax)
 6b0:	b0 06                	mov    $0x6,%al
 6b2:	00 00                	add    %al,(%rax)
 6b4:	00 00                	add    %al,(%rax)
 6b6:	00 00                	add    %al,(%rax)
 6b8:	3e 00 00             	add    %al,%ds:(%rax)
 6bb:	00 00                	add    %al,(%rax)
 6bd:	48 0e                	rex.W (bad) 
 6bf:	10 86 02 45 0d 06    	adc    %al,0x60d4502(%rsi)
 6c5:	70 0c                	jo     6d3 <.eh_frame+0x6d3>
 6c7:	07                   	(bad)  
 6c8:	08 00                	or     %al,(%rax)
 6ca:	00 00                	add    %al,(%rax)
 6cc:	1c 00                	sbb    $0x0,%al
 6ce:	00 00                	add    %al,(%rax)
 6d0:	d0 06                	rolb   (%rsi)
 6d2:	00 00                	add    %al,(%rax)
 6d4:	00 00                	add    %al,(%rax)
 6d6:	00 00                	add    %al,(%rax)
 6d8:	5d                   	pop    %rbp
 6d9:	00 00                	add    %al,(%rax)
 6db:	00 00                	add    %al,(%rax)
 6dd:	41 0e                	rex.B (bad) 
 6df:	10 86 02 48 0d 06    	adc    %al,0x60d4802(%rsi)
 6e5:	02 53 0c             	add    0xc(%rbx),%dl
 6e8:	07                   	(bad)  
 6e9:	08 00                	or     %al,(%rax)
 6eb:	00 24 00             	add    %ah,(%rax,%rax,1)
 6ee:	00 00                	add    %al,(%rax)
 6f0:	f0 06                	lock (bad) 
 6f2:	00 00                	add    %al,(%rax)
 6f4:	00 00                	add    %al,(%rax)
 6f6:	00 00                	add    %al,(%rax)
 6f8:	80 00 00             	addb   $0x0,(%rax)
 6fb:	00 00                	add    %al,(%rax)
 6fd:	41 0e                	rex.B (bad) 
 6ff:	10 86 02 48 0d 06    	adc    %al,0x60d4802(%rsi)
 705:	46 8d 03             	rex.RX lea (%rbx),%r8d
 708:	8c 04 83             	mov    %es,(%rbx,%rax,4)
 70b:	05 02 70 0c 07       	add    $0x70c7002,%eax
 710:	08 00                	or     %al,(%rax)
 712:	00 00                	add    %al,(%rax)
 714:	1c 00                	sbb    $0x0,%al
 716:	00 00                	add    %al,(%rax)
 718:	18 07                	sbb    %al,(%rdi)
 71a:	00 00                	add    %al,(%rax)
 71c:	00 00                	add    %al,(%rax)
 71e:	00 00                	add    %al,(%rax)
 720:	2e 00 00             	add    %al,%cs:(%rax)
 723:	00 00                	add    %al,(%rax)
 725:	41 0e                	rex.B (bad) 
 727:	10 86 02 43 0d 06    	adc    %al,0x60d4302(%rsi)
 72d:	69 0c 07 08 00 00 00 	imul   $0x8,(%rdi,%rax,1),%ecx
 734:	1c 00                	sbb    $0x0,%al
 736:	00 00                	add    %al,(%rax)
 738:	38 07                	cmp    %al,(%rdi)
 73a:	00 00                	add    %al,(%rax)
 73c:	00 00                	add    %al,(%rax)
 73e:	00 00                	add    %al,(%rax)
 740:	0d 00 00 00 00       	or     $0x0,%eax
 745:	41 0e                	rex.B (bad) 
 747:	10 86 02 43 0d 06    	adc    %al,0x60d4302(%rsi)
 74d:	48 0c 07             	rex.W or $0x7,%al
 750:	08 00                	or     %al,(%rax)
 752:	00 00                	add    %al,(%rax)
 754:	1c 00                	sbb    $0x0,%al
 756:	00 00                	add    %al,(%rax)
 758:	58                   	pop    %rax
 759:	07                   	(bad)  
 75a:	00 00                	add    %al,(%rax)
 75c:	00 00                	add    %al,(%rax)
 75e:	00 00                	add    %al,(%rax)
 760:	4a 00 00             	rex.WX add %al,(%rax)
 763:	00 00                	add    %al,(%rax)
 765:	41 0e                	rex.B (bad) 
 767:	10 86 02 43 0d 06    	adc    %al,0x60d4302(%rsi)
 76d:	02 45 0c             	add    0xc(%rbp),%al
 770:	07                   	(bad)  
 771:	08 00                	or     %al,(%rax)
 773:	00 1c 00             	add    %bl,(%rax,%rax,1)
 776:	00 00                	add    %al,(%rax)
 778:	78 07                	js     781 <.eh_frame+0x781>
 77a:	00 00                	add    %al,(%rax)
 77c:	00 00                	add    %al,(%rax)
 77e:	00 00                	add    %al,(%rax)
 780:	1c 01                	sbb    $0x1,%al
 782:	00 00                	add    %al,(%rax)
 784:	00 41 0e             	add    %al,0xe(%rcx)
 787:	10 86 02 43 0d 06    	adc    %al,0x60d4302(%rsi)
 78d:	03 17                	add    (%rdi),%edx
 78f:	01 0c 07             	add    %ecx,(%rdi,%rax,1)
 792:	08 00                	or     %al,(%rax)
 794:	1c 00                	sbb    $0x0,%al
 796:	00 00                	add    %al,(%rax)
 798:	98                   	cwtl   
 799:	07                   	(bad)  
 79a:	00 00                	add    %al,(%rax)
 79c:	00 00                	add    %al,(%rax)
 79e:	00 00                	add    %al,(%rax)
 7a0:	1c 01                	sbb    $0x1,%al
 7a2:	00 00                	add    %al,(%rax)
 7a4:	00 41 0e             	add    %al,0xe(%rcx)
 7a7:	10 86 02 43 0d 06    	adc    %al,0x60d4302(%rsi)
 7ad:	03 17                	add    (%rdi),%edx
 7af:	01 0c 07             	add    %ecx,(%rdi,%rax,1)
 7b2:	08 00                	or     %al,(%rax)
 7b4:	2c 00                	sub    $0x0,%al
 7b6:	00 00                	add    %al,(%rax)
 7b8:	b8 07 00 00 00       	mov    $0x7,%eax
 7bd:	00 00                	add    %al,(%rax)
 7bf:	00 72 04             	add    %dh,0x4(%rdx)
 7c2:	00 00                	add    %al,(%rax)
 7c4:	00 54 0e 10          	add    %dl,0x10(%rsi,%rcx,1)
 7c8:	86 02                	xchg   %al,(%rdx)
 7ca:	43 0d 06 49 8d 03    	rex.XB or $0x38d4906,%eax
 7d0:	8c 04 83             	mov    %es,(%rbx,%rax,4)
 7d3:	05 03 4c 04 c3       	add    $0xc3044c03,%eax
 7d8:	42 cc                	rex.X int3 
 7da:	42 cd 41             	rex.X int $0x41
 7dd:	c6                   	(bad)  
 7de:	0c 07                	or     $0x7,%al
 7e0:	08 00                	or     %al,(%rax)
 7e2:	00 00                	add    %al,(%rax)
 7e4:	1c 00                	sbb    $0x0,%al
 7e6:	00 00                	add    %al,(%rax)
 7e8:	e8 07 00 00 00       	callq  7f4 <.eh_frame+0x7f4>
 7ed:	00 00                	add    %al,(%rax)
 7ef:	00 2b                	add    %ch,(%rbx)
 7f1:	01 00                	add    %eax,(%rax)
 7f3:	00 00                	add    %al,(%rax)
 7f5:	41 0e                	rex.B (bad) 
 7f7:	10 86 02 43 0d 06    	adc    %al,0x60d4302(%rsi)
 7fd:	03 26                	add    (%rsi),%esp
 7ff:	01 0c 07             	add    %ecx,(%rdi,%rax,1)
 802:	08 00                	or     %al,(%rax)
 804:	1c 00                	sbb    $0x0,%al
 806:	00 00                	add    %al,(%rax)
 808:	08 08                	or     %cl,(%rax)
 80a:	00 00                	add    %al,(%rax)
 80c:	00 00                	add    %al,(%rax)
 80e:	00 00                	add    %al,(%rax)
 810:	b7 04                	mov    $0x4,%bh
 812:	00 00                	add    %al,(%rax)
 814:	00 41 0e             	add    %al,0xe(%rcx)
 817:	10 86 02 43 0d 06    	adc    %al,0x60d4302(%rsi)
 81d:	03 b2 04 0c 07 08    	add    0x8070c04(%rdx),%esi
 823:	00 1c 00             	add    %bl,(%rax,%rax,1)
 826:	00 00                	add    %al,(%rax)
 828:	28 08                	sub    %cl,(%rax)
 82a:	00 00                	add    %al,(%rax)
 82c:	00 00                	add    %al,(%rax)
 82e:	00 00                	add    %al,(%rax)
 830:	3a 02                	cmp    (%rdx),%al
 832:	00 00                	add    %al,(%rax)
 834:	00 41 0e             	add    %al,0xe(%rcx)
 837:	10 86 02 43 0d 06    	adc    %al,0x60d4302(%rsi)
 83d:	03 35 02 0c 07 08    	add    0x8070c02(%rip),%esi        # 8071445 <libkdump_spectre_read+0x806d665>
 843:	00 1c 00             	add    %bl,(%rax,%rax,1)
 846:	00 00                	add    %al,(%rax)
 848:	48 08 00             	rex.W or %al,(%rax)
 84b:	00 00                	add    %al,(%rax)
 84d:	00 00                	add    %al,(%rax)
 84f:	00 17                	add    %dl,(%rdi)
 851:	00 00                	add    %al,(%rax)
 853:	00 00                	add    %al,(%rax)
 855:	41 0e                	rex.B (bad) 
 857:	10 86 02 43 0d 06    	adc    %al,0x60d4302(%rsi)
 85d:	52                   	push   %rdx
 85e:	0c 07                	or     $0x7,%al
 860:	08 00                	or     %al,(%rax)
 862:	00 00                	add    %al,(%rax)
 864:	1c 00                	sbb    $0x0,%al
 866:	00 00                	add    %al,(%rax)
 868:	68 08 00 00 00       	pushq  $0x8
 86d:	00 00                	add    %al,(%rax)
 86f:	00 1a                	add    %bl,(%rdx)
 871:	00 00                	add    %al,(%rax)
 873:	00 00                	add    %al,(%rax)
 875:	41 0e                	rex.B (bad) 
 877:	10 86 02 43 0d 06    	adc    %al,0x60d4302(%rsi)
 87d:	55                   	push   %rbp
 87e:	0c 07                	or     $0x7,%al
 880:	08 00                	or     %al,(%rax)
 882:	00 00                	add    %al,(%rax)
 884:	1c 00                	sbb    $0x0,%al
 886:	00 00                	add    %al,(%rax)
 888:	88 08                	mov    %cl,(%rax)
 88a:	00 00                	add    %al,(%rax)
 88c:	00 00                	add    %al,(%rax)
 88e:	00 00                	add    %al,(%rax)
 890:	21 00                	and    %eax,(%rax)
 892:	00 00                	add    %al,(%rax)
 894:	00 41 0e             	add    %al,0xe(%rcx)
 897:	10 86 02 43 0d 06    	adc    %al,0x60d4302(%rsi)
 89d:	5c                   	pop    %rsp
 89e:	0c 07                	or     $0x7,%al
 8a0:	08 00                	or     %al,(%rax)
 8a2:	00 00                	add    %al,(%rax)
 8a4:	1c 00                	sbb    $0x0,%al
 8a6:	00 00                	add    %al,(%rax)
 8a8:	a8 08                	test   $0x8,%al
 8aa:	00 00                	add    %al,(%rax)
 8ac:	00 00                	add    %al,(%rax)
 8ae:	00 00                	add    %al,(%rax)
 8b0:	10 00                	adc    %al,(%rax)
 8b2:	00 00                	add    %al,(%rax)
 8b4:	00 41 0e             	add    %al,0xe(%rcx)
 8b7:	10 86 02 43 0d 06    	adc    %al,0x60d4302(%rsi)
 8bd:	4b 0c 07             	rex.WXB or $0x7,%al
 8c0:	08 00                	or     %al,(%rax)
 8c2:	00 00                	add    %al,(%rax)
 8c4:	1c 00                	sbb    $0x0,%al
 8c6:	00 00                	add    %al,(%rax)
 8c8:	c8 08 00 00          	enterq $0x8,$0x0
 8cc:	00 00                	add    %al,(%rax)
 8ce:	00 00                	add    %al,(%rax)
 8d0:	11 00                	adc    %eax,(%rax)
 8d2:	00 00                	add    %al,(%rax)
 8d4:	00 41 0e             	add    %al,0xe(%rcx)
 8d7:	10 86 02 43 0d 06    	adc    %al,0x60d4302(%rsi)
 8dd:	4c 0c 07             	rex.WR or $0x7,%al
 8e0:	08 00                	or     %al,(%rax)
 8e2:	00 00                	add    %al,(%rax)
 8e4:	1c 00                	sbb    $0x0,%al
 8e6:	00 00                	add    %al,(%rax)
 8e8:	e8 08 00 00 00       	callq  8f5 <.eh_frame+0x8f5>
 8ed:	00 00                	add    %al,(%rax)
 8ef:	00 2b                	add    %ch,(%rbx)
 8f1:	01 00                	add    %eax,(%rax)
 8f3:	00 00                	add    %al,(%rax)
 8f5:	41 0e                	rex.B (bad) 
 8f7:	10 86 02 43 0d 06    	adc    %al,0x60d4302(%rsi)
 8fd:	03 26                	add    (%rsi),%esp
 8ff:	01 0c 07             	add    %ecx,(%rdi,%rax,1)
 902:	08 00                	or     %al,(%rax)
 904:	1c 00                	sbb    $0x0,%al
 906:	00 00                	add    %al,(%rax)
 908:	08 09                	or     %cl,(%rcx)
 90a:	00 00                	add    %al,(%rax)
 90c:	00 00                	add    %al,(%rax)
 90e:	00 00                	add    %al,(%rax)
 910:	d4                   	(bad)  
 911:	00 00                	add    %al,(%rax)
 913:	00 00                	add    %al,(%rax)
 915:	41 0e                	rex.B (bad) 
 917:	10 86 02 43 0d 06    	adc    %al,0x60d4302(%rsi)
 91d:	02 cf                	add    %bh,%cl
 91f:	0c 07                	or     $0x7,%al
 921:	08 00                	or     %al,(%rax)
 923:	00 1c 00             	add    %bl,(%rax,%rax,1)
 926:	00 00                	add    %al,(%rax)
 928:	28 09                	sub    %cl,(%rcx)
 92a:	00 00                	add    %al,(%rax)
 92c:	00 00                	add    %al,(%rax)
 92e:	00 00                	add    %al,(%rax)
 930:	cd 07                	int    $0x7
 932:	00 00                	add    %al,(%rax)
 934:	00 41 0e             	add    %al,0xe(%rcx)
 937:	10 86 02 43 0d 06    	adc    %al,0x60d4302(%rsi)
 93d:	03 c8                	add    %eax,%ecx
 93f:	07                   	(bad)  
 940:	0c 07                	or     $0x7,%al
 942:	08 00                	or     %al,(%rax)
 944:	1c 00                	sbb    $0x0,%al
 946:	00 00                	add    %al,(%rax)
 948:	48 09 00             	or     %rax,(%rax)
 94b:	00 00                	add    %al,(%rax)
 94d:	00 00                	add    %al,(%rax)
 94f:	00 cd                	add    %cl,%ch
 951:	01 00                	add    %eax,(%rax)
 953:	00 00                	add    %al,(%rax)
 955:	41 0e                	rex.B (bad) 
 957:	10 86 02 43 0d 06    	adc    %al,0x60d4302(%rsi)
 95d:	03 c8                	add    %eax,%ecx
 95f:	01 0c 07             	add    %ecx,(%rdi,%rax,1)
 962:	08 00                	or     %al,(%rax)
 964:	1c 00                	sbb    $0x0,%al
 966:	00 00                	add    %al,(%rax)
 968:	68 09 00 00 00       	pushq  $0x9
 96d:	00 00                	add    %al,(%rax)
 96f:	00 11                	add    %dl,(%rcx)
 971:	01 00                	add    %eax,(%rax)
 973:	00 00                	add    %al,(%rax)
 975:	41 0e                	rex.B (bad) 
 977:	10 86 02 43 0d 06    	adc    %al,0x60d4302(%rsi)
 97d:	03 0c 01             	add    (%rcx,%rax,1),%ecx
 980:	0c 07                	or     $0x7,%al
 982:	08 00                	or     %al,(%rax)
 984:	20 00                	and    %al,(%rax)
 986:	00 00                	add    %al,(%rax)
 988:	88 09                	mov    %cl,(%rcx)
 98a:	00 00                	add    %al,(%rax)
 98c:	00 00                	add    %al,(%rax)
 98e:	00 00                	add    %al,(%rax)
 990:	8e 02                	mov    (%rdx),%es
 992:	00 00                	add    %al,(%rax)
 994:	00 41 0e             	add    %al,0xe(%rcx)
 997:	10 86 02 43 0d 06    	adc    %al,0x60d4302(%rsi)
 99d:	03 89 02 0c 07 08    	add    0x8070c02(%rcx),%ecx
 9a3:	00 00                	add    %al,(%rax)
 9a5:	00 00                	add    %al,(%rax)
	...

sequences.o:     file format elf64-x86-64


Disassembly of section .text:

0000000000000000 <meltdown_depth_begin>:
   0:	48 29 d9             	sub    %rbx,%rcx
   3:	48 83 eb 40          	sub    $0x40,%rbx
   7:	48 8b 3b             	mov    (%rbx),%rdi
   a:	48 8b 0c 0f          	mov    (%rdi,%rcx,1),%rcx
   e:	48 8b 0c 0f          	mov    (%rdi,%rcx,1),%rcx
  12:	48 83 c1 01          	add    $0x1,%rcx
  16:	48 83 e9 01          	sub    $0x1,%rcx
  1a:	48 83 c1 01          	add    $0x1,%rcx
  1e:	48 83 e9 01          	sub    $0x1,%rcx
  22:	48 83 c1 01          	add    $0x1,%rcx
  26:	48 83 e9 01          	sub    $0x1,%rcx
  2a:	48 83 c1 01          	add    $0x1,%rcx
  2e:	48 83 e9 01          	sub    $0x1,%rcx
  32:	48 83 c1 01          	add    $0x1,%rcx
  36:	48 83 e9 01          	sub    $0x1,%rcx

000000000000003a <meltdown_depth_end>:
  3a:	90                   	nop
